gpasm-1.4.0 #1106 (Oct  6 2014) build/default   10-31-2016  20:30:01        PAGE  1


LOC    OBJECT CODE    LINE  SOURCE TEXT
  VALUE

                      00001 ;--------------------------------------------------------
                      00002 ; File Created by SDCC : free open source ANSI-C Compiler
                      00003 ; Version 3.4.0 #8981 (Apr  5 2014) (MINGW64)
                      00004 ; This file was generated Mon Oct 31 20:30:01 2016
                      00005 ;--------------------------------------------------------
                      00006 ; PIC16 port for the Microchip 16-bit core micros
                      00007 ;--------------------------------------------------------
                      00008         list    p=18f4550
                      00009         radix   dec
                      00010         CONFIG  FOSC=INTOSCIO_EC
                      00011         CONFIG  WDT=OFF
                      00012         CONFIG  LVP=OFF
                      00013         CONFIG  PBADEN=OFF
                      00014         CONFIG  XINST=OFF
                      00015 
                      00016 
                      00017 ;--------------------------------------------------------
                      00018 ; public variables in this module
                      00019 ;--------------------------------------------------------
  0000                00020         global  _max
  0000                00021         global  _j
  0000                00022         global  _i
  0000                00023         global  _Init_Main
  0000                00024         global  _flag1
  0000                00025         global  _flag2
  0000                00026         global  _min
  0000                00027         global  _valor
  0000                00028         global  _main
  0000                00029         global  _main_Interrupt
                      00030 
                      00031 ;--------------------------------------------------------
                      00032 ; extern variables in this module
                      00033 ;--------------------------------------------------------
  0000                00034         extern  _SPPCFGbits
  0000                00035         extern  _SPPEPSbits
  0000                00036         extern  _SPPCONbits
  0000                00037         extern  _UFRMLbits
  0000                00038         extern  _UFRMHbits
  0000                00039         extern  _UIRbits
  0000                00040         extern  _UIEbits
  0000                00041         extern  _UEIRbits
  0000                00042         extern  _UEIEbits
  0000                00043         extern  _USTATbits
  0000                00044         extern  _UCONbits
  0000                00045         extern  _UADDRbits
  0000                00046         extern  _UCFGbits
  0000                00047         extern  _UEP0bits
  0000                00048         extern  _UEP1bits
  0000                00049         extern  _UEP2bits
  0000                00050         extern  _UEP3bits
  0000                00051         extern  _UEP4bits
  0000                00052         extern  _UEP5bits
  0000                00053         extern  _UEP6bits
gpasm-1.4.0 #1106 (Oct  6 2014) build/default   10-31-2016  20:30:01        PAGE  2


LOC    OBJECT CODE    LINE  SOURCE TEXT
  VALUE

  0000                00054         extern  _UEP7bits
  0000                00055         extern  _UEP8bits
  0000                00056         extern  _UEP9bits
  0000                00057         extern  _UEP10bits
  0000                00058         extern  _UEP11bits
  0000                00059         extern  _UEP12bits
  0000                00060         extern  _UEP13bits
  0000                00061         extern  _UEP14bits
  0000                00062         extern  _UEP15bits
  0000                00063         extern  _PORTAbits
  0000                00064         extern  _PORTBbits
  0000                00065         extern  _PORTCbits
  0000                00066         extern  _PORTDbits
  0000                00067         extern  _PORTEbits
  0000                00068         extern  _LATAbits
  0000                00069         extern  _LATBbits
  0000                00070         extern  _LATCbits
  0000                00071         extern  _LATDbits
  0000                00072         extern  _LATEbits
  0000                00073         extern  _DDRAbits
  0000                00074         extern  _TRISAbits
  0000                00075         extern  _DDRBbits
  0000                00076         extern  _TRISBbits
  0000                00077         extern  _DDRCbits
  0000                00078         extern  _TRISCbits
  0000                00079         extern  _DDRDbits
  0000                00080         extern  _TRISDbits
  0000                00081         extern  _DDREbits
  0000                00082         extern  _TRISEbits
  0000                00083         extern  _OSCTUNEbits
  0000                00084         extern  _PIE1bits
  0000                00085         extern  _PIR1bits
  0000                00086         extern  _IPR1bits
  0000                00087         extern  _PIE2bits
  0000                00088         extern  _PIR2bits
  0000                00089         extern  _IPR2bits
  0000                00090         extern  _EECON1bits
  0000                00091         extern  _RCSTAbits
  0000                00092         extern  _TXSTAbits
  0000                00093         extern  _T3CONbits
  0000                00094         extern  _CMCONbits
  0000                00095         extern  _CVRCONbits
  0000                00096         extern  _CCP1ASbits
  0000                00097         extern  _ECCP1ASbits
  0000                00098         extern  _CCP1DELbits
  0000                00099         extern  _ECCP1DELbits
  0000                00100         extern  _BAUDCONbits
  0000                00101         extern  _BAUDCTLbits
  0000                00102         extern  _CCP2CONbits
  0000                00103         extern  _CCP1CONbits
  0000                00104         extern  _ECCP1CONbits
  0000                00105         extern  _ADCON2bits
  0000                00106         extern  _ADCON1bits
gpasm-1.4.0 #1106 (Oct  6 2014) build/default   10-31-2016  20:30:01        PAGE  3


LOC    OBJECT CODE    LINE  SOURCE TEXT
  VALUE

  0000                00107         extern  _ADCON0bits
  0000                00108         extern  _SSPCON2bits
  0000                00109         extern  _SSPCON1bits
  0000                00110         extern  _SSPSTATbits
  0000                00111         extern  _T2CONbits
  0000                00112         extern  _T1CONbits
  0000                00113         extern  _RCONbits
  0000                00114         extern  _WDTCONbits
  0000                00115         extern  _HLVDCONbits
  0000                00116         extern  _LVDCONbits
  0000                00117         extern  _OSCCONbits
  0000                00118         extern  _T0CONbits
  0000                00119         extern  _STATUSbits
  0000                00120         extern  _INTCON3bits
  0000                00121         extern  _INTCON2bits
  0000                00122         extern  _INTCONbits
  0000                00123         extern  _STKPTRbits
  0000                00124         extern  _SPPDATA
  0000                00125         extern  _SPPCFG
  0000                00126         extern  _SPPEPS
  0000                00127         extern  _SPPCON
  0000                00128         extern  _UFRM
  0000                00129         extern  _UFRML
  0000                00130         extern  _UFRMH
  0000                00131         extern  _UIR
  0000                00132         extern  _UIE
  0000                00133         extern  _UEIR
  0000                00134         extern  _UEIE
  0000                00135         extern  _USTAT
  0000                00136         extern  _UCON
  0000                00137         extern  _UADDR
  0000                00138         extern  _UCFG
  0000                00139         extern  _UEP0
  0000                00140         extern  _UEP1
  0000                00141         extern  _UEP2
  0000                00142         extern  _UEP3
  0000                00143         extern  _UEP4
  0000                00144         extern  _UEP5
  0000                00145         extern  _UEP6
  0000                00146         extern  _UEP7
  0000                00147         extern  _UEP8
  0000                00148         extern  _UEP9
  0000                00149         extern  _UEP10
  0000                00150         extern  _UEP11
  0000                00151         extern  _UEP12
  0000                00152         extern  _UEP13
  0000                00153         extern  _UEP14
  0000                00154         extern  _UEP15
  0000                00155         extern  _PORTA
  0000                00156         extern  _PORTB
  0000                00157         extern  _PORTC
  0000                00158         extern  _PORTD
  0000                00159         extern  _PORTE
gpasm-1.4.0 #1106 (Oct  6 2014) build/default   10-31-2016  20:30:01        PAGE  4


LOC    OBJECT CODE    LINE  SOURCE TEXT
  VALUE

  0000                00160         extern  _LATA
  0000                00161         extern  _LATB
  0000                00162         extern  _LATC
  0000                00163         extern  _LATD
  0000                00164         extern  _LATE
  0000                00165         extern  _DDRA
  0000                00166         extern  _TRISA
  0000                00167         extern  _DDRB
  0000                00168         extern  _TRISB
  0000                00169         extern  _DDRC
  0000                00170         extern  _TRISC
  0000                00171         extern  _DDRD
  0000                00172         extern  _TRISD
  0000                00173         extern  _DDRE
  0000                00174         extern  _TRISE
  0000                00175         extern  _OSCTUNE
  0000                00176         extern  _PIE1
  0000                00177         extern  _PIR1
  0000                00178         extern  _IPR1
  0000                00179         extern  _PIE2
  0000                00180         extern  _PIR2
  0000                00181         extern  _IPR2
  0000                00182         extern  _EECON1
  0000                00183         extern  _EECON2
  0000                00184         extern  _EEDATA
  0000                00185         extern  _EEADR
  0000                00186         extern  _RCSTA
  0000                00187         extern  _TXSTA
  0000                00188         extern  _TXREG
  0000                00189         extern  _RCREG
  0000                00190         extern  _SPBRG
  0000                00191         extern  _SPBRGH
  0000                00192         extern  _T3CON
  0000                00193         extern  _TMR3
  0000                00194         extern  _TMR3L
  0000                00195         extern  _TMR3H
  0000                00196         extern  _CMCON
  0000                00197         extern  _CVRCON
  0000                00198         extern  _CCP1AS
  0000                00199         extern  _ECCP1AS
  0000                00200         extern  _CCP1DEL
  0000                00201         extern  _ECCP1DEL
  0000                00202         extern  _BAUDCON
  0000                00203         extern  _BAUDCTL
  0000                00204         extern  _CCP2CON
  0000                00205         extern  _CCPR2
  0000                00206         extern  _CCPR2L
  0000                00207         extern  _CCPR2H
  0000                00208         extern  _CCP1CON
  0000                00209         extern  _ECCP1CON
  0000                00210         extern  _CCPR1
  0000                00211         extern  _CCPR1L
  0000                00212         extern  _CCPR1H
gpasm-1.4.0 #1106 (Oct  6 2014) build/default   10-31-2016  20:30:01        PAGE  5


LOC    OBJECT CODE    LINE  SOURCE TEXT
  VALUE

  0000                00213         extern  _ADCON2
  0000                00214         extern  _ADCON1
  0000                00215         extern  _ADCON0
  0000                00216         extern  _ADRES
  0000                00217         extern  _ADRESL
  0000                00218         extern  _ADRESH
  0000                00219         extern  _SSPCON2
  0000                00220         extern  _SSPCON1
  0000                00221         extern  _SSPSTAT
  0000                00222         extern  _SSPADD
  0000                00223         extern  _SSPBUF
  0000                00224         extern  _T2CON
  0000                00225         extern  _PR2
  0000                00226         extern  _TMR2
  0000                00227         extern  _T1CON
  0000                00228         extern  _TMR1
  0000                00229         extern  _TMR1L
  0000                00230         extern  _TMR1H
  0000                00231         extern  _RCON
  0000                00232         extern  _WDTCON
  0000                00233         extern  _HLVDCON
  0000                00234         extern  _LVDCON
  0000                00235         extern  _OSCCON
  0000                00236         extern  _T0CON
  0000                00237         extern  _TMR0
  0000                00238         extern  _TMR0L
  0000                00239         extern  _TMR0H
  0000                00240         extern  _STATUS
  0000                00241         extern  _FSR2L
  0000                00242         extern  _FSR2H
  0000                00243         extern  _PLUSW2
  0000                00244         extern  _PREINC2
  0000                00245         extern  _POSTDEC2
  0000                00246         extern  _POSTINC2
  0000                00247         extern  _INDF2
  0000                00248         extern  _BSR
  0000                00249         extern  _FSR1L
  0000                00250         extern  _FSR1H
  0000                00251         extern  _PLUSW1
  0000                00252         extern  _PREINC1
  0000                00253         extern  _POSTDEC1
  0000                00254         extern  _POSTINC1
  0000                00255         extern  _INDF1
  0000                00256         extern  _WREG
  0000                00257         extern  _FSR0L
  0000                00258         extern  _FSR0H
  0000                00259         extern  _PLUSW0
  0000                00260         extern  _PREINC0
  0000                00261         extern  _POSTDEC0
  0000                00262         extern  _POSTINC0
  0000                00263         extern  _INDF0
  0000                00264         extern  _INTCON3
  0000                00265         extern  _INTCON2
gpasm-1.4.0 #1106 (Oct  6 2014) build/default   10-31-2016  20:30:01        PAGE  6


LOC    OBJECT CODE    LINE  SOURCE TEXT
  VALUE

  0000                00266         extern  _INTCON
  0000                00267         extern  _PROD
  0000                00268         extern  _PRODL
  0000                00269         extern  _PRODH
  0000                00270         extern  _TABLAT
  0000                00271         extern  _TBLPTR
  0000                00272         extern  _TBLPTRL
  0000                00273         extern  _TBLPTRH
  0000                00274         extern  _TBLPTRU
  0000                00275         extern  _PC
  0000                00276         extern  _PCL
  0000                00277         extern  _PCLATH
  0000                00278         extern  _PCLATU
  0000                00279         extern  _STKPTR
  0000                00280         extern  _TOS
  0000                00281         extern  _TOSL
  0000                00282         extern  _TOSH
  0000                00283         extern  _TOSU
  0000                00284         extern  _InicializaAD
  0000                00285         extern  _LeValorAD
  0000                00286         extern  ___sint2fs
  0000                00287         extern  ___fsmul
  0000                00288         extern  ___fsdiv
  0000                00289         extern  ___fslt
  0000                00290         extern  ___fsadd
  0000                00291         extern  ___fssub
  0000                00292         extern  ___fsgt
                      00293 
                      00294 ;--------------------------------------------------------
                      00295 ;       Equates to used internal registers
                      00296 ;--------------------------------------------------------
  00000FD8            00297 STATUS  equ     0xfd8
  00000FFA            00298 PCLATH  equ     0xffa
  00000FFB            00299 PCLATU  equ     0xffb
  00000FE8            00300 WREG    equ     0xfe8
  00000FE0            00301 BSR     equ     0xfe0
  00000FE9            00302 FSR0L   equ     0xfe9
  00000FEA            00303 FSR0H   equ     0xfea
  00000FE1            00304 FSR1L   equ     0xfe1
  00000FD9            00305 FSR2L   equ     0xfd9
  00000FE6            00306 POSTINC1        equ     0xfe6
  00000FE5            00307 POSTDEC1        equ     0xfe5
  00000FE4            00308 PREINC1 equ     0xfe4
  00000FF3            00309 PRODL   equ     0xff3
  00000FF4            00310 PRODH   equ     0xff4
                      00311 
                      00312 
                      00313 ; Internal registers
                      00314 .registers      udata_ovr       0x0000
000000                00315 r0x00   res     1
000001                00316 r0x01   res     1
000002                00317 r0x02   res     1
000003                00318 r0x03   res     1
gpasm-1.4.0 #1106 (Oct  6 2014) build/default   10-31-2016  20:30:01        PAGE  7


LOC    OBJECT CODE    LINE  SOURCE TEXT
  VALUE

                      00319 
                      00320 udata_main_0    udata
000000                00321 _i      res     4
                      00322 
                      00323 udata_main_1    udata
000000                00324 _j      res     4
                      00325 
                      00326 udata_main_2    udata
000000                00327 _max    res     4
                      00328 
                      00329 udata_main_3    udata
000000                00330 _min    res     4
                      00331 
                      00332 udata_main_4    udata
000000                00333 _valor  res     4
                      00334 
                      00335 udata_main_5    udata
000000                00336 _flag1  res     2
                      00337 
                      00338 udata_main_6    udata
000000                00339 _flag2  res     2
                      00340 
                      00341 ;--------------------------------------------------------
                      00342 ; interrupt vector
                      00343 ;--------------------------------------------------------
                      00344 
                      00345 ;--------------------------------------------------------
                      00346 ; global & static initialisations
                      00347 ;--------------------------------------------------------
                      00348 ; ; Starting pCode block for absolute section
                      00349 ; ;-----------------------------------------
                      00350 S_main_ivec_0x1_main_Interrupt  code    0X000008
000008                00351 ivec_0x1_main_Interrupt:
000008 EF00 F000      00352         GOTO    _main_Interrupt
                      00353 
                      00354 ; I code from now on!
                      00355 ; ; Starting pCode block
                      00356 S_main__main    code
000000                00357 _main:
                      00358 ;       .line   31; main.c      Init_Main();
000000 EC?? F0??      00359         CALL    _Init_Main
                      00360 ;       .line   32; main.c      InicializaAD();
000004 EC?? F0??      00361         CALL    _InicializaAD
000008 ????           00362         BANKSEL _min
                      00363 ;       .line   34; main.c      min = 1.5;
00000A 6B??           00364         CLRF    _min, B
00000C ????           00365         BANKSEL (_min + 1)
00000E 6B??           00366         CLRF    (_min + 1), B
000010 0EC0           00367         MOVLW   0xc0
000012 ????           00368         BANKSEL (_min + 2)
000014 6F??           00369         MOVWF   (_min + 2), B
000016 0E3F           00370         MOVLW   0x3f
000018 ????           00371         BANKSEL (_min + 3)
gpasm-1.4.0 #1106 (Oct  6 2014) build/default   10-31-2016  20:30:01        PAGE  8


LOC    OBJECT CODE    LINE  SOURCE TEXT
  VALUE

00001A 6F??           00372         MOVWF   (_min + 3), B
00001C                00373 _00125_DS_:
                      00374 ;       .line   40; main.c      valor=(float)LeValorAD()*5/1024;
00001C EC?? F0??      00375         CALL    _LeValorAD
Message[1301]: Using default destination of 0 (Access Bank).
000020 6E??           00376         MOVWF   r0x00
000022 CFF3 F000      00377         MOVFF   PRODL, r0x01
000026 50??           00378         MOVF    r0x01, W
Message[1301]: Using default destination of 0 (Access Bank).
000028 6EE5           00379         MOVWF   POSTDEC1
00002A 50??           00380         MOVF    r0x00, W
Message[1301]: Using default destination of 0 (Access Bank).
00002C 6EE5           00381         MOVWF   POSTDEC1
00002E EC?? F0??      00382         CALL    ___sint2fs
Message[1301]: Using default destination of 0 (Access Bank).
000032 6E??           00383         MOVWF   r0x00
000034 CFF3 F000      00384         MOVFF   PRODL, r0x01
000038 CFF4 F000      00385         MOVFF   PRODH, r0x02
00003C CFE9 F000      00386         MOVFF   FSR0L, r0x03
000040 52E6           00387         MOVF    POSTINC1, F
000042 52E6           00388         MOVF    POSTINC1, F
000044 50??           00389         MOVF    r0x03, W
Message[1301]: Using default destination of 0 (Access Bank).
000046 6EE5           00390         MOVWF   POSTDEC1
000048 50??           00391         MOVF    r0x02, W
Message[1301]: Using default destination of 0 (Access Bank).
00004A 6EE5           00392         MOVWF   POSTDEC1
00004C 50??           00393         MOVF    r0x01, W
Message[1301]: Using default destination of 0 (Access Bank).
00004E 6EE5           00394         MOVWF   POSTDEC1
000050 50??           00395         MOVF    r0x00, W
Message[1301]: Using default destination of 0 (Access Bank).
000052 6EE5           00396         MOVWF   POSTDEC1
000054 0E40           00397         MOVLW   0x40
Message[1301]: Using default destination of 0 (Access Bank).
000056 6EE5           00398         MOVWF   POSTDEC1
000058 0EA0           00399         MOVLW   0xa0
Message[1301]: Using default destination of 0 (Access Bank).
00005A 6EE5           00400         MOVWF   POSTDEC1
00005C 0E00           00401         MOVLW   0x00
Message[1301]: Using default destination of 0 (Access Bank).
00005E 6EE5           00402         MOVWF   POSTDEC1
000060 0E00           00403         MOVLW   0x00
Message[1301]: Using default destination of 0 (Access Bank).
000062 6EE5           00404         MOVWF   POSTDEC1
000064 EC?? F0??      00405         CALL    ___fsmul
Message[1301]: Using default destination of 0 (Access Bank).
000068 6E??           00406         MOVWF   r0x00
00006A CFF3 F000      00407         MOVFF   PRODL, r0x01
00006E CFF4 F000      00408         MOVFF   PRODH, r0x02
000072 CFE9 F000      00409         MOVFF   FSR0L, r0x03
000076 0E08           00410         MOVLW   0x08
000078 26E1           00411         ADDWF   FSR1L, F
gpasm-1.4.0 #1106 (Oct  6 2014) build/default   10-31-2016  20:30:01        PAGE  9


LOC    OBJECT CODE    LINE  SOURCE TEXT
  VALUE

00007A 0E44           00412         MOVLW   0x44
Message[1301]: Using default destination of 0 (Access Bank).
00007C 6EE5           00413         MOVWF   POSTDEC1
00007E 0E80           00414         MOVLW   0x80
Message[1301]: Using default destination of 0 (Access Bank).
000080 6EE5           00415         MOVWF   POSTDEC1
000082 0E00           00416         MOVLW   0x00
Message[1301]: Using default destination of 0 (Access Bank).
000084 6EE5           00417         MOVWF   POSTDEC1
000086 0E00           00418         MOVLW   0x00
Message[1301]: Using default destination of 0 (Access Bank).
000088 6EE5           00419         MOVWF   POSTDEC1
00008A 50??           00420         MOVF    r0x03, W
Message[1301]: Using default destination of 0 (Access Bank).
00008C 6EE5           00421         MOVWF   POSTDEC1
00008E 50??           00422         MOVF    r0x02, W
Message[1301]: Using default destination of 0 (Access Bank).
000090 6EE5           00423         MOVWF   POSTDEC1
000092 50??           00424         MOVF    r0x01, W
Message[1301]: Using default destination of 0 (Access Bank).
000094 6EE5           00425         MOVWF   POSTDEC1
000096 50??           00426         MOVF    r0x00, W
Message[1301]: Using default destination of 0 (Access Bank).
000098 6EE5           00427         MOVWF   POSTDEC1
00009A EC?? F0??      00428         CALL    ___fsdiv
00009E ????           00429         BANKSEL _valor
0000A0 6F??           00430         MOVWF   _valor, B
0000A2 CFF3 F000      00431         MOVFF   PRODL, (_valor + 1)
0000A6 CFF4 F000      00432         MOVFF   PRODH, (_valor + 2)
0000AA CFE9 F000      00433         MOVFF   FSR0L, (_valor + 3)
0000AE 0E08           00434         MOVLW   0x08
0000B0 26E1           00435         ADDWF   FSR1L, F
0000B2 ????           00436         BANKSEL _flag1
                      00437 ;       .line   42; main.c      flag1 = 0;
0000B4 6B??           00438         CLRF    _flag1, B
0000B6 ????           00439         BANKSEL (_flag1 + 1)
0000B8 6B??           00440         CLRF    (_flag1 + 1), B
                      00441 ;       .line   43; main.c      flag2 = 1;
0000BA 0E01           00442         MOVLW   0x01
0000BC ????           00443         BANKSEL _flag2
0000BE 6F??           00444         MOVWF   _flag2, B
0000C0 ????           00445         BANKSEL (_flag2 + 1)
0000C2 6B??           00446         CLRF    (_flag2 + 1), B
0000C4 ????           00447         BANKSEL (_min + 3)
                      00448 ;       .line   45; main.c      if (valor >= min && flag1 == 0) // Se o valor passar do minimo no começo
                            , min recebe o novo valor e aciona a flag1 que gira o motor num sentido
0000C6 51??           00449         MOVF    (_min + 3), W, B
Message[1301]: Using default destination of 0 (Access Bank).
0000C8 6EE5           00450         MOVWF   POSTDEC1
0000CA ????           00451         BANKSEL (_min + 2)
0000CC 51??           00452         MOVF    (_min + 2), W, B
Message[1301]: Using default destination of 0 (Access Bank).
0000CE 6EE5           00453         MOVWF   POSTDEC1
gpasm-1.4.0 #1106 (Oct  6 2014) build/default   10-31-2016  20:30:01        PAGE 10


LOC    OBJECT CODE    LINE  SOURCE TEXT
  VALUE

0000D0 ????           00454         BANKSEL (_min + 1)
0000D2 51??           00455         MOVF    (_min + 1), W, B
Message[1301]: Using default destination of 0 (Access Bank).
0000D4 6EE5           00456         MOVWF   POSTDEC1
0000D6 ????           00457         BANKSEL _min
0000D8 51??           00458         MOVF    _min, W, B
Message[1301]: Using default destination of 0 (Access Bank).
0000DA 6EE5           00459         MOVWF   POSTDEC1
0000DC ????           00460         BANKSEL (_valor + 3)
0000DE 51??           00461         MOVF    (_valor + 3), W, B
Message[1301]: Using default destination of 0 (Access Bank).
0000E0 6EE5           00462         MOVWF   POSTDEC1
0000E2 ????           00463         BANKSEL (_valor + 2)
0000E4 51??           00464         MOVF    (_valor + 2), W, B
Message[1301]: Using default destination of 0 (Access Bank).
0000E6 6EE5           00465         MOVWF   POSTDEC1
0000E8 ????           00466         BANKSEL (_valor + 1)
0000EA 51??           00467         MOVF    (_valor + 1), W, B
Message[1301]: Using default destination of 0 (Access Bank).
0000EC 6EE5           00468         MOVWF   POSTDEC1
0000EE ????           00469         BANKSEL _valor
0000F0 51??           00470         MOVF    _valor, W, B
Message[1301]: Using default destination of 0 (Access Bank).
0000F2 6EE5           00471         MOVWF   POSTDEC1
0000F4 EC?? F0??      00472         CALL    ___fslt
Message[1301]: Using default destination of 0 (Access Bank).
0000F8 6E??           00473         MOVWF   r0x00
0000FA 0E08           00474         MOVLW   0x08
0000FC 26E1           00475         ADDWF   FSR1L, F
0000FE 50??           00476         MOVF    r0x00, W
000100 E1??           00477         BNZ     _00106_DS_
000102 ????           00478         BANKSEL _flag2
                      00479 ;       .line   47; main.c      flag2 = 0;
000104 6B??           00480         CLRF    _flag2, B
000106 ????           00481         BANKSEL (_flag2 + 1)
000108 6B??           00482         CLRF    (_flag2 + 1), B
                      00483 ;       .line   48; main.c      min = valor;
00010A C??? F???      00484         MOVFF   _valor, _min
00010E C??? F???      00485         MOVFF   (_valor + 1), (_min + 1)
000112 C??? F???      00486         MOVFF   (_valor + 2), (_min + 2)
000116 C??? F???      00487         MOVFF   (_valor + 3), (_min + 3)
                      00488 ;       .line   49; main.c      flag1 = 1;
00011A 0E01           00489         MOVLW   0x01
00011C ????           00490         BANKSEL _flag1
00011E 6F??           00491         MOVWF   _flag1, B
000120 ????           00492         BANKSEL (_flag1 + 1)
000122 6B??           00493         CLRF    (_flag1 + 1), B
000124                00494 _00106_DS_:
                      00495 ;       .line   51; main.c      if (valor >=(min+0.5) && flag1 == 1) // Se o valor continuar sendo maior
                             que o minimo, min atualiza o valor
000124 0E3F           00496         MOVLW   0x3f
Message[1301]: Using default destination of 0 (Access Bank).
000126 6EE5           00497         MOVWF   POSTDEC1
gpasm-1.4.0 #1106 (Oct  6 2014) build/default   10-31-2016  20:30:01        PAGE 11


LOC    OBJECT CODE    LINE  SOURCE TEXT
  VALUE

000128 0E00           00498         MOVLW   0x00
Message[1301]: Using default destination of 0 (Access Bank).
00012A 6EE5           00499         MOVWF   POSTDEC1
00012C 0E00           00500         MOVLW   0x00
Message[1301]: Using default destination of 0 (Access Bank).
00012E 6EE5           00501         MOVWF   POSTDEC1
000130 0E00           00502         MOVLW   0x00
Message[1301]: Using default destination of 0 (Access Bank).
000132 6EE5           00503         MOVWF   POSTDEC1
000134 ????           00504         BANKSEL (_min + 3)
000136 51??           00505         MOVF    (_min + 3), W, B
Message[1301]: Using default destination of 0 (Access Bank).
000138 6EE5           00506         MOVWF   POSTDEC1
00013A ????           00507         BANKSEL (_min + 2)
00013C 51??           00508         MOVF    (_min + 2), W, B
Message[1301]: Using default destination of 0 (Access Bank).
00013E 6EE5           00509         MOVWF   POSTDEC1
000140 ????           00510         BANKSEL (_min + 1)
000142 51??           00511         MOVF    (_min + 1), W, B
Message[1301]: Using default destination of 0 (Access Bank).
000144 6EE5           00512         MOVWF   POSTDEC1
000146 ????           00513         BANKSEL _min
000148 51??           00514         MOVF    _min, W, B
Message[1301]: Using default destination of 0 (Access Bank).
00014A 6EE5           00515         MOVWF   POSTDEC1
00014C EC?? F0??      00516         CALL    ___fsadd
Message[1301]: Using default destination of 0 (Access Bank).
000150 6E??           00517         MOVWF   r0x00
000152 CFF3 F000      00518         MOVFF   PRODL, r0x01
000156 CFF4 F000      00519         MOVFF   PRODH, r0x02
00015A CFE9 F000      00520         MOVFF   FSR0L, r0x03
00015E 0E08           00521         MOVLW   0x08
000160 26E1           00522         ADDWF   FSR1L, F
000162 50??           00523         MOVF    r0x03, W
Message[1301]: Using default destination of 0 (Access Bank).
000164 6EE5           00524         MOVWF   POSTDEC1
000166 50??           00525         MOVF    r0x02, W
Message[1301]: Using default destination of 0 (Access Bank).
000168 6EE5           00526         MOVWF   POSTDEC1
00016A 50??           00527         MOVF    r0x01, W
Message[1301]: Using default destination of 0 (Access Bank).
00016C 6EE5           00528         MOVWF   POSTDEC1
00016E 50??           00529         MOVF    r0x00, W
Message[1301]: Using default destination of 0 (Access Bank).
000170 6EE5           00530         MOVWF   POSTDEC1
000172 ????           00531         BANKSEL (_valor + 3)
000174 51??           00532         MOVF    (_valor + 3), W, B
Message[1301]: Using default destination of 0 (Access Bank).
000176 6EE5           00533         MOVWF   POSTDEC1
000178 ????           00534         BANKSEL (_valor + 2)
00017A 51??           00535         MOVF    (_valor + 2), W, B
Message[1301]: Using default destination of 0 (Access Bank).
00017C 6EE5           00536         MOVWF   POSTDEC1
gpasm-1.4.0 #1106 (Oct  6 2014) build/default   10-31-2016  20:30:01        PAGE 12


LOC    OBJECT CODE    LINE  SOURCE TEXT
  VALUE

00017E ????           00537         BANKSEL (_valor + 1)
000180 51??           00538         MOVF    (_valor + 1), W, B
Message[1301]: Using default destination of 0 (Access Bank).
000182 6EE5           00539         MOVWF   POSTDEC1
000184 ????           00540         BANKSEL _valor
000186 51??           00541         MOVF    _valor, W, B
Message[1301]: Using default destination of 0 (Access Bank).
000188 6EE5           00542         MOVWF   POSTDEC1
00018A EC?? F0??      00543         CALL    ___fslt
Message[1301]: Using default destination of 0 (Access Bank).
00018E 6E??           00544         MOVWF   r0x00
000190 0E08           00545         MOVLW   0x08
000192 26E1           00546         ADDWF   FSR1L, F
000194 50??           00547         MOVF    r0x00, W
000196 E1??           00548         BNZ     _00109_DS_
000198 ????           00549         BANKSEL _flag1
00019A 51??           00550         MOVF    _flag1, W, B
00019C 0A01           00551         XORLW   0x01
00019E E1??           00552         BNZ     _00186_DS_
0001A0 ????           00553         BANKSEL (_flag1 + 1)
0001A2 51??           00554         MOVF    (_flag1 + 1), W, B
0001A4 E0??           00555         BZ      _00187_DS_
0001A6                00556 _00186_DS_:
0001A6 D???           00557         BRA     _00109_DS_
0001A8                00558 _00187_DS_:
                      00559 ;       .line   53; main.c      min = valor;
0001A8 C??? F???      00560         MOVFF   _valor, _min
0001AC C??? F???      00561         MOVFF   (_valor + 1), (_min + 1)
0001B0 C??? F???      00562         MOVFF   (_valor + 2), (_min + 2)
0001B4 C??? F???      00563         MOVFF   (_valor + 3), (_min + 3)
0001B8                00564 _00109_DS_:
                      00565 ;       .line   55; main.c      if (valor <= (min - 0.5) && flag1 == 1) // Se o valor for menor que o mi
                            nimo-0,5, min recebe o valor, e aciona a flag2 que inverte o sentido do motor
0001B8 0E3F           00566         MOVLW   0x3f
Message[1301]: Using default destination of 0 (Access Bank).
0001BA 6EE5           00567         MOVWF   POSTDEC1
0001BC 0E00           00568         MOVLW   0x00
Message[1301]: Using default destination of 0 (Access Bank).
0001BE 6EE5           00569         MOVWF   POSTDEC1
0001C0 0E00           00570         MOVLW   0x00
Message[1301]: Using default destination of 0 (Access Bank).
0001C2 6EE5           00571         MOVWF   POSTDEC1
0001C4 0E00           00572         MOVLW   0x00
Message[1301]: Using default destination of 0 (Access Bank).
0001C6 6EE5           00573         MOVWF   POSTDEC1
0001C8 ????           00574         BANKSEL (_min + 3)
0001CA 51??           00575         MOVF    (_min + 3), W, B
Message[1301]: Using default destination of 0 (Access Bank).
0001CC 6EE5           00576         MOVWF   POSTDEC1
0001CE ????           00577         BANKSEL (_min + 2)
0001D0 51??           00578         MOVF    (_min + 2), W, B
Message[1301]: Using default destination of 0 (Access Bank).
0001D2 6EE5           00579         MOVWF   POSTDEC1
gpasm-1.4.0 #1106 (Oct  6 2014) build/default   10-31-2016  20:30:01        PAGE 13


LOC    OBJECT CODE    LINE  SOURCE TEXT
  VALUE

0001D4 ????           00580         BANKSEL (_min + 1)
0001D6 51??           00581         MOVF    (_min + 1), W, B
Message[1301]: Using default destination of 0 (Access Bank).
0001D8 6EE5           00582         MOVWF   POSTDEC1
0001DA ????           00583         BANKSEL _min
0001DC 51??           00584         MOVF    _min, W, B
Message[1301]: Using default destination of 0 (Access Bank).
0001DE 6EE5           00585         MOVWF   POSTDEC1
0001E0 EC?? F0??      00586         CALL    ___fssub
Message[1301]: Using default destination of 0 (Access Bank).
0001E4 6E??           00587         MOVWF   r0x00
0001E6 CFF3 F000      00588         MOVFF   PRODL, r0x01
0001EA CFF4 F000      00589         MOVFF   PRODH, r0x02
0001EE CFE9 F000      00590         MOVFF   FSR0L, r0x03
0001F2 0E08           00591         MOVLW   0x08
0001F4 26E1           00592         ADDWF   FSR1L, F
0001F6 50??           00593         MOVF    r0x03, W
Message[1301]: Using default destination of 0 (Access Bank).
0001F8 6EE5           00594         MOVWF   POSTDEC1
0001FA 50??           00595         MOVF    r0x02, W
Message[1301]: Using default destination of 0 (Access Bank).
0001FC 6EE5           00596         MOVWF   POSTDEC1
0001FE 50??           00597         MOVF    r0x01, W
Message[1301]: Using default destination of 0 (Access Bank).
000200 6EE5           00598         MOVWF   POSTDEC1
000202 50??           00599         MOVF    r0x00, W
Message[1301]: Using default destination of 0 (Access Bank).
000204 6EE5           00600         MOVWF   POSTDEC1
000206 ????           00601         BANKSEL (_valor + 3)
000208 51??           00602         MOVF    (_valor + 3), W, B
Message[1301]: Using default destination of 0 (Access Bank).
00020A 6EE5           00603         MOVWF   POSTDEC1
00020C ????           00604         BANKSEL (_valor + 2)
00020E 51??           00605         MOVF    (_valor + 2), W, B
Message[1301]: Using default destination of 0 (Access Bank).
000210 6EE5           00606         MOVWF   POSTDEC1
000212 ????           00607         BANKSEL (_valor + 1)
000214 51??           00608         MOVF    (_valor + 1), W, B
Message[1301]: Using default destination of 0 (Access Bank).
000216 6EE5           00609         MOVWF   POSTDEC1
000218 ????           00610         BANKSEL _valor
00021A 51??           00611         MOVF    _valor, W, B
Message[1301]: Using default destination of 0 (Access Bank).
00021C 6EE5           00612         MOVWF   POSTDEC1
00021E EC?? F0??      00613         CALL    ___fsgt
Message[1301]: Using default destination of 0 (Access Bank).
000222 6E??           00614         MOVWF   r0x00
000224 0E08           00615         MOVLW   0x08
000226 26E1           00616         ADDWF   FSR1L, F
000228 50??           00617         MOVF    r0x00, W
00022A E1??           00618         BNZ     _00112_DS_
00022C ????           00619         BANKSEL _flag1
00022E 51??           00620         MOVF    _flag1, W, B
gpasm-1.4.0 #1106 (Oct  6 2014) build/default   10-31-2016  20:30:01        PAGE 14


LOC    OBJECT CODE    LINE  SOURCE TEXT
  VALUE

000230 0A01           00621         XORLW   0x01
000232 E1??           00622         BNZ     _00188_DS_
000234 ????           00623         BANKSEL (_flag1 + 1)
000236 51??           00624         MOVF    (_flag1 + 1), W, B
000238 E0??           00625         BZ      _00189_DS_
00023A                00626 _00188_DS_:
00023A D???           00627         BRA     _00112_DS_
00023C                00628 _00189_DS_:
00023C ????           00629         BANKSEL _flag1
                      00630 ;       .line   57; main.c      flag1 = 0;
00023E 6B??           00631         CLRF    _flag1, B
000240 ????           00632         BANKSEL (_flag1 + 1)
000242 6B??           00633         CLRF    (_flag1 + 1), B
                      00634 ;       .line   58; main.c      min = valor;
000244 C??? F???      00635         MOVFF   _valor, _min
000248 C??? F???      00636         MOVFF   (_valor + 1), (_min + 1)
00024C C??? F???      00637         MOVFF   (_valor + 2), (_min + 2)
000250 C??? F???      00638         MOVFF   (_valor + 3), (_min + 3)
                      00639 ;       .line   59; main.c      flag2 = 1;
000254 0E01           00640         MOVLW   0x01
000256 ????           00641         BANKSEL _flag2
000258 6F??           00642         MOVWF   _flag2, B
00025A ????           00643         BANKSEL (_flag2 + 1)
00025C 6B??           00644         CLRF    (_flag2 + 1), B
00025E                00645 _00112_DS_:
00025E ????           00646         BANKSEL (_min + 3)
                      00647 ;       .line   61; main.c      if (valor < min && flag1 == 1 && valor > (min - 0.5)) //Nao atualiza o v
                            alor, pois nao caiu 0,5
000260 51??           00648         MOVF    (_min + 3), W, B
Message[1301]: Using default destination of 0 (Access Bank).
000262 6EE5           00649         MOVWF   POSTDEC1
000264 ????           00650         BANKSEL (_min + 2)
000266 51??           00651         MOVF    (_min + 2), W, B
Message[1301]: Using default destination of 0 (Access Bank).
000268 6EE5           00652         MOVWF   POSTDEC1
00026A ????           00653         BANKSEL (_min + 1)
00026C 51??           00654         MOVF    (_min + 1), W, B
Message[1301]: Using default destination of 0 (Access Bank).
00026E 6EE5           00655         MOVWF   POSTDEC1
000270 ????           00656         BANKSEL _min
000272 51??           00657         MOVF    _min, W, B
Message[1301]: Using default destination of 0 (Access Bank).
000274 6EE5           00658         MOVWF   POSTDEC1
000276 ????           00659         BANKSEL (_valor + 3)
000278 51??           00660         MOVF    (_valor + 3), W, B
Message[1301]: Using default destination of 0 (Access Bank).
00027A 6EE5           00661         MOVWF   POSTDEC1
00027C ????           00662         BANKSEL (_valor + 2)
00027E 51??           00663         MOVF    (_valor + 2), W, B
Message[1301]: Using default destination of 0 (Access Bank).
000280 6EE5           00664         MOVWF   POSTDEC1
000282 ????           00665         BANKSEL (_valor + 1)
000284 51??           00666         MOVF    (_valor + 1), W, B
gpasm-1.4.0 #1106 (Oct  6 2014) build/default   10-31-2016  20:30:01        PAGE 15


LOC    OBJECT CODE    LINE  SOURCE TEXT
  VALUE

Message[1301]: Using default destination of 0 (Access Bank).
000286 6EE5           00667         MOVWF   POSTDEC1
000288 ????           00668         BANKSEL _valor
00028A 51??           00669         MOVF    _valor, W, B
Message[1301]: Using default destination of 0 (Access Bank).
00028C 6EE5           00670         MOVWF   POSTDEC1
00028E EC?? F0??      00671         CALL    ___fslt
Message[1301]: Using default destination of 0 (Access Bank).
000292 6E??           00672         MOVWF   r0x00
000294 0E08           00673         MOVLW   0x08
000296 26E1           00674         ADDWF   FSR1L, F
000298 50??           00675         MOVF    r0x00, W
00029A E0??           00676         BZ      _00131_DS_
                      00677 ; ;;!!! pic16_aopOp:1117 called for a spillLocation -- assigning WREG instead --- CHECK
Message[1301]: Using default destination of 0 (Access Bank).
00029C 6AE8           00678         CLRF    WREG
00029E ????           00679         BANKSEL _flag1
0002A0 51??           00680         MOVF    _flag1, W, B
0002A2 0A01           00681         XORLW   0x01
0002A4 E1??           00682         BNZ     _00131_DS_
0002A6 ????           00683         BANKSEL (_flag1 + 1)
0002A8 51??           00684         MOVF    (_flag1 + 1), W, B
0002AA E1??           00685         BNZ     _00131_DS_
0002AC 2AE8           00686         INCF    WREG, F
0002AE                00687 _00131_DS_:
                      00688 ;       .line   65; main.c      if (valor <= (min-0.5) && flag2 == 1) //Se o valor continuar sendo menor
                             que o minimo, min atualiza o valor
0002AE 0E3F           00689         MOVLW   0x3f
Message[1301]: Using default destination of 0 (Access Bank).
0002B0 6EE5           00690         MOVWF   POSTDEC1
0002B2 0E00           00691         MOVLW   0x00
Message[1301]: Using default destination of 0 (Access Bank).
0002B4 6EE5           00692         MOVWF   POSTDEC1
0002B6 0E00           00693         MOVLW   0x00
Message[1301]: Using default destination of 0 (Access Bank).
0002B8 6EE5           00694         MOVWF   POSTDEC1
0002BA 0E00           00695         MOVLW   0x00
Message[1301]: Using default destination of 0 (Access Bank).
0002BC 6EE5           00696         MOVWF   POSTDEC1
0002BE ????           00697         BANKSEL (_min + 3)
0002C0 51??           00698         MOVF    (_min + 3), W, B
Message[1301]: Using default destination of 0 (Access Bank).
0002C2 6EE5           00699         MOVWF   POSTDEC1
0002C4 ????           00700         BANKSEL (_min + 2)
0002C6 51??           00701         MOVF    (_min + 2), W, B
Message[1301]: Using default destination of 0 (Access Bank).
0002C8 6EE5           00702         MOVWF   POSTDEC1
0002CA ????           00703         BANKSEL (_min + 1)
0002CC 51??           00704         MOVF    (_min + 1), W, B
Message[1301]: Using default destination of 0 (Access Bank).
0002CE 6EE5           00705         MOVWF   POSTDEC1
0002D0 ????           00706         BANKSEL _min
0002D2 51??           00707         MOVF    _min, W, B
gpasm-1.4.0 #1106 (Oct  6 2014) build/default   10-31-2016  20:30:01        PAGE 16


LOC    OBJECT CODE    LINE  SOURCE TEXT
  VALUE

Message[1301]: Using default destination of 0 (Access Bank).
0002D4 6EE5           00708         MOVWF   POSTDEC1
0002D6 EC?? F0??      00709         CALL    ___fssub
Message[1301]: Using default destination of 0 (Access Bank).
0002DA 6E??           00710         MOVWF   r0x00
0002DC CFF3 F000      00711         MOVFF   PRODL, r0x01
0002E0 CFF4 F000      00712         MOVFF   PRODH, r0x02
0002E4 CFE9 F000      00713         MOVFF   FSR0L, r0x03
0002E8 0E08           00714         MOVLW   0x08
0002EA 26E1           00715         ADDWF   FSR1L, F
0002EC 50??           00716         MOVF    r0x03, W
Message[1301]: Using default destination of 0 (Access Bank).
0002EE 6EE5           00717         MOVWF   POSTDEC1
0002F0 50??           00718         MOVF    r0x02, W
Message[1301]: Using default destination of 0 (Access Bank).
0002F2 6EE5           00719         MOVWF   POSTDEC1
0002F4 50??           00720         MOVF    r0x01, W
Message[1301]: Using default destination of 0 (Access Bank).
0002F6 6EE5           00721         MOVWF   POSTDEC1
0002F8 50??           00722         MOVF    r0x00, W
Message[1301]: Using default destination of 0 (Access Bank).
0002FA 6EE5           00723         MOVWF   POSTDEC1
0002FC ????           00724         BANKSEL (_valor + 3)
0002FE 51??           00725         MOVF    (_valor + 3), W, B
Message[1301]: Using default destination of 0 (Access Bank).
000300 6EE5           00726         MOVWF   POSTDEC1
000302 ????           00727         BANKSEL (_valor + 2)
000304 51??           00728         MOVF    (_valor + 2), W, B
Message[1301]: Using default destination of 0 (Access Bank).
000306 6EE5           00729         MOVWF   POSTDEC1
000308 ????           00730         BANKSEL (_valor + 1)
00030A 51??           00731         MOVF    (_valor + 1), W, B
Message[1301]: Using default destination of 0 (Access Bank).
00030C 6EE5           00732         MOVWF   POSTDEC1
00030E ????           00733         BANKSEL _valor
000310 51??           00734         MOVF    _valor, W, B
Message[1301]: Using default destination of 0 (Access Bank).
000312 6EE5           00735         MOVWF   POSTDEC1
000314 EC?? F0??      00736         CALL    ___fsgt
Message[1301]: Using default destination of 0 (Access Bank).
000318 6E??           00737         MOVWF   r0x00
00031A 0E08           00738         MOVLW   0x08
00031C 26E1           00739         ADDWF   FSR1L, F
00031E 50??           00740         MOVF    r0x00, W
000320 E1??           00741         BNZ     _00115_DS_
000322 ????           00742         BANKSEL _flag2
000324 51??           00743         MOVF    _flag2, W, B
000326 0A01           00744         XORLW   0x01
000328 E1??           00745         BNZ     _00192_DS_
00032A ????           00746         BANKSEL (_flag2 + 1)
00032C 51??           00747         MOVF    (_flag2 + 1), W, B
00032E E0??           00748         BZ      _00193_DS_
000330                00749 _00192_DS_:
gpasm-1.4.0 #1106 (Oct  6 2014) build/default   10-31-2016  20:30:01        PAGE 17


LOC    OBJECT CODE    LINE  SOURCE TEXT
  VALUE

000330 D???           00750         BRA     _00115_DS_
000332                00751 _00193_DS_:
                      00752 ;       .line   67; main.c      min = valor;
000332 C??? F???      00753         MOVFF   _valor, _min
000336 C??? F???      00754         MOVFF   (_valor + 1), (_min + 1)
00033A C??? F???      00755         MOVFF   (_valor + 2), (_min + 2)
00033E C??? F???      00756         MOVFF   (_valor + 3), (_min + 3)
000342                00757 _00115_DS_:
                      00758 ;       .line   69; main.c      if (valor >= (min + 0.5) && flag2 == 1) // Se o valor for maior que mini
                            mo+0,5, min recebe o valor, e aciona a flag1 que volta ao estado original
000342 0E3F           00759         MOVLW   0x3f
Message[1301]: Using default destination of 0 (Access Bank).
000344 6EE5           00760         MOVWF   POSTDEC1
000346 0E00           00761         MOVLW   0x00
Message[1301]: Using default destination of 0 (Access Bank).
000348 6EE5           00762         MOVWF   POSTDEC1
00034A 0E00           00763         MOVLW   0x00
Message[1301]: Using default destination of 0 (Access Bank).
00034C 6EE5           00764         MOVWF   POSTDEC1
00034E 0E00           00765         MOVLW   0x00
Message[1301]: Using default destination of 0 (Access Bank).
000350 6EE5           00766         MOVWF   POSTDEC1
000352 ????           00767         BANKSEL (_min + 3)
000354 51??           00768         MOVF    (_min + 3), W, B
Message[1301]: Using default destination of 0 (Access Bank).
000356 6EE5           00769         MOVWF   POSTDEC1
000358 ????           00770         BANKSEL (_min + 2)
00035A 51??           00771         MOVF    (_min + 2), W, B
Message[1301]: Using default destination of 0 (Access Bank).
00035C 6EE5           00772         MOVWF   POSTDEC1
00035E ????           00773         BANKSEL (_min + 1)
000360 51??           00774         MOVF    (_min + 1), W, B
Message[1301]: Using default destination of 0 (Access Bank).
000362 6EE5           00775         MOVWF   POSTDEC1
000364 ????           00776         BANKSEL _min
000366 51??           00777         MOVF    _min, W, B
Message[1301]: Using default destination of 0 (Access Bank).
000368 6EE5           00778         MOVWF   POSTDEC1
00036A EC?? F0??      00779         CALL    ___fsadd
Message[1301]: Using default destination of 0 (Access Bank).
00036E 6E??           00780         MOVWF   r0x00
000370 CFF3 F000      00781         MOVFF   PRODL, r0x01
000374 CFF4 F000      00782         MOVFF   PRODH, r0x02
000378 CFE9 F000      00783         MOVFF   FSR0L, r0x03
00037C 0E08           00784         MOVLW   0x08
00037E 26E1           00785         ADDWF   FSR1L, F
000380 50??           00786         MOVF    r0x03, W
Message[1301]: Using default destination of 0 (Access Bank).
000382 6EE5           00787         MOVWF   POSTDEC1
000384 50??           00788         MOVF    r0x02, W
Message[1301]: Using default destination of 0 (Access Bank).
000386 6EE5           00789         MOVWF   POSTDEC1
000388 50??           00790         MOVF    r0x01, W
gpasm-1.4.0 #1106 (Oct  6 2014) build/default   10-31-2016  20:30:01        PAGE 18


LOC    OBJECT CODE    LINE  SOURCE TEXT
  VALUE

Message[1301]: Using default destination of 0 (Access Bank).
00038A 6EE5           00791         MOVWF   POSTDEC1
00038C 50??           00792         MOVF    r0x00, W
Message[1301]: Using default destination of 0 (Access Bank).
00038E 6EE5           00793         MOVWF   POSTDEC1
000390 ????           00794         BANKSEL (_valor + 3)
000392 51??           00795         MOVF    (_valor + 3), W, B
Message[1301]: Using default destination of 0 (Access Bank).
000394 6EE5           00796         MOVWF   POSTDEC1
000396 ????           00797         BANKSEL (_valor + 2)
000398 51??           00798         MOVF    (_valor + 2), W, B
Message[1301]: Using default destination of 0 (Access Bank).
00039A 6EE5           00799         MOVWF   POSTDEC1
00039C ????           00800         BANKSEL (_valor + 1)
00039E 51??           00801         MOVF    (_valor + 1), W, B
Message[1301]: Using default destination of 0 (Access Bank).
0003A0 6EE5           00802         MOVWF   POSTDEC1
0003A2 ????           00803         BANKSEL _valor
0003A4 51??           00804         MOVF    _valor, W, B
Message[1301]: Using default destination of 0 (Access Bank).
0003A6 6EE5           00805         MOVWF   POSTDEC1
0003A8 EC?? F0??      00806         CALL    ___fslt
Message[1301]: Using default destination of 0 (Access Bank).
0003AC 6E??           00807         MOVWF   r0x00
0003AE 0E08           00808         MOVLW   0x08
0003B0 26E1           00809         ADDWF   FSR1L, F
0003B2 50??           00810         MOVF    r0x00, W
0003B4 E1??           00811         BNZ     _00118_DS_
0003B6 ????           00812         BANKSEL _flag2
0003B8 51??           00813         MOVF    _flag2, W, B
0003BA 0A01           00814         XORLW   0x01
0003BC E1??           00815         BNZ     _00194_DS_
0003BE ????           00816         BANKSEL (_flag2 + 1)
0003C0 51??           00817         MOVF    (_flag2 + 1), W, B
0003C2 E0??           00818         BZ      _00195_DS_
0003C4                00819 _00194_DS_:
0003C4 D???           00820         BRA     _00118_DS_
0003C6                00821 _00195_DS_:
0003C6 ????           00822         BANKSEL _flag2
                      00823 ;       .line   71; main.c      flag2 = 0;
0003C8 6B??           00824         CLRF    _flag2, B
0003CA ????           00825         BANKSEL (_flag2 + 1)
0003CC 6B??           00826         CLRF    (_flag2 + 1), B
                      00827 ;       .line   72; main.c      min = valor;
0003CE C??? F???      00828         MOVFF   _valor, _min
0003D2 C??? F???      00829         MOVFF   (_valor + 1), (_min + 1)
0003D6 C??? F???      00830         MOVFF   (_valor + 2), (_min + 2)
0003DA C??? F???      00831         MOVFF   (_valor + 3), (_min + 3)
                      00832 ;       .line   73; main.c      flag1 = 1;
0003DE 0E01           00833         MOVLW   0x01
0003E0 ????           00834         BANKSEL _flag1
0003E2 6F??           00835         MOVWF   _flag1, B
0003E4 ????           00836         BANKSEL (_flag1 + 1)
gpasm-1.4.0 #1106 (Oct  6 2014) build/default   10-31-2016  20:30:01        PAGE 19


LOC    OBJECT CODE    LINE  SOURCE TEXT
  VALUE

0003E6 6B??           00837         CLRF    (_flag1 + 1), B
0003E8                00838 _00118_DS_:
0003E8 ????           00839         BANKSEL (_min + 3)
                      00840 ;       .line   75; main.c      if (valor > min && flag2 == 1 && valor < (min + 0, 5)) //Nao atualiza o 
                            valor, pois nao subiu 0,5
0003EA 51??           00841         MOVF    (_min + 3), W, B
Message[1301]: Using default destination of 0 (Access Bank).
0003EC 6EE5           00842         MOVWF   POSTDEC1
0003EE ????           00843         BANKSEL (_min + 2)
0003F0 51??           00844         MOVF    (_min + 2), W, B
Message[1301]: Using default destination of 0 (Access Bank).
0003F2 6EE5           00845         MOVWF   POSTDEC1
0003F4 ????           00846         BANKSEL (_min + 1)
0003F6 51??           00847         MOVF    (_min + 1), W, B
Message[1301]: Using default destination of 0 (Access Bank).
0003F8 6EE5           00848         MOVWF   POSTDEC1
0003FA ????           00849         BANKSEL _min
0003FC 51??           00850         MOVF    _min, W, B
Message[1301]: Using default destination of 0 (Access Bank).
0003FE 6EE5           00851         MOVWF   POSTDEC1
000400 ????           00852         BANKSEL (_valor + 3)
000402 51??           00853         MOVF    (_valor + 3), W, B
Message[1301]: Using default destination of 0 (Access Bank).
000404 6EE5           00854         MOVWF   POSTDEC1
000406 ????           00855         BANKSEL (_valor + 2)
000408 51??           00856         MOVF    (_valor + 2), W, B
Message[1301]: Using default destination of 0 (Access Bank).
00040A 6EE5           00857         MOVWF   POSTDEC1
00040C ????           00858         BANKSEL (_valor + 1)
00040E 51??           00859         MOVF    (_valor + 1), W, B
Message[1301]: Using default destination of 0 (Access Bank).
000410 6EE5           00860         MOVWF   POSTDEC1
000412 ????           00861         BANKSEL _valor
000414 51??           00862         MOVF    _valor, W, B
Message[1301]: Using default destination of 0 (Access Bank).
000416 6EE5           00863         MOVWF   POSTDEC1
000418 EC?? F0??      00864         CALL    ___fsgt
Message[1301]: Using default destination of 0 (Access Bank).
00041C 6E??           00865         MOVWF   r0x00
00041E 0E08           00866         MOVLW   0x08
000420 26E1           00867         ADDWF   FSR1L, F
000422 50??           00868         MOVF    r0x00, W
000424 E0??           00869         BZ      _00137_DS_
                      00870 ; ;;!!! pic16_aopOp:1117 called for a spillLocation -- assigning WREG instead --- CHECK
Message[1301]: Using default destination of 0 (Access Bank).
000426 6AE8           00871         CLRF    WREG
000428 ????           00872         BANKSEL _flag2
00042A 51??           00873         MOVF    _flag2, W, B
00042C 0A01           00874         XORLW   0x01
00042E E1??           00875         BNZ     _00137_DS_
000430 ????           00876         BANKSEL (_flag2 + 1)
000432 51??           00877         MOVF    (_flag2 + 1), W, B
000434 E1??           00878         BNZ     _00137_DS_
gpasm-1.4.0 #1106 (Oct  6 2014) build/default   10-31-2016  20:30:01        PAGE 20


LOC    OBJECT CODE    LINE  SOURCE TEXT
  VALUE

000436 2AE8           00879         INCF    WREG, F
000438                00880 _00137_DS_:
000438 ????           00881         BANKSEL _flag1
                      00882 ;       .line   79; main.c      if (flag1 == 1) // gira o motor num sentido
00043A 51??           00883         MOVF    _flag1, W, B
00043C 0A01           00884         XORLW   0x01
00043E E1??           00885         BNZ     _00198_DS_
000440 ????           00886         BANKSEL (_flag1 + 1)
000442 51??           00887         MOVF    (_flag1 + 1), W, B
000444 E0??           00888         BZ      _00199_DS_
000446                00889 _00198_DS_:
000446 D???           00890         BRA     _00121_DS_
000448                00891 _00199_DS_:
                      00892 ;       .line   81; main.c      BitClr(PORTB, 4); //JOGA NIVEL BAIXO NA PORTA B4
000448 50??           00893         MOVF    _PORTB, W
Message[1301]: Using default destination of 0 (Access Bank).
00044A 6E??           00894         MOVWF   r0x00
00044C 0EEF           00895         MOVLW   0xef
00044E 14??           00896         ANDWF   r0x00, W
Message[1301]: Using default destination of 0 (Access Bank).
000450 6E??           00897         MOVWF   _PORTB
                      00898 ;       .line   82; main.c      BitSet(PORTB, 5); //JOGA NIVEL ALTO NA PORTA B5
000452 8A??           00899         BSF     _PORTB, 5
000454                00900 _00121_DS_:
000454 ????           00901         BANKSEL _flag2
                      00902 ;       .line   85; main.c      if (flag2 == 1) // inverte o sentido do motor
000456 51??           00903         MOVF    _flag2, W, B
000458 0A01           00904         XORLW   0x01
00045A E1??           00905         BNZ     _00202_DS_
00045C ????           00906         BANKSEL (_flag2 + 1)
00045E 51??           00907         MOVF    (_flag2 + 1), W, B
000460 E0??           00908         BZ      _00203_DS_
000462                00909 _00202_DS_:
000462 EF?? F0??      00910         GOTO    _00125_DS_
000466                00911 _00203_DS_:
                      00912 ;       .line   87; main.c      BitClr(PORTB, 5); //JOGA NIVEL BAIXO NA PORTA B5
000466 50??           00913         MOVF    _PORTB, W
Message[1301]: Using default destination of 0 (Access Bank).
000468 6E??           00914         MOVWF   r0x00
00046A 0EDF           00915         MOVLW   0xdf
00046C 14??           00916         ANDWF   r0x00, W
Message[1301]: Using default destination of 0 (Access Bank).
00046E 6E??           00917         MOVWF   _PORTB
                      00918 ;       .line   88; main.c      BitSet(PORTB, 4); //JOGA        NIVEL ALTO NA PORTA B4
000470 88??           00919         BSF     _PORTB, 4
000472 EF?? F0??      00920         GOTO    _00125_DS_
000476 0012           00921         RETURN  
                      00922 
                      00923 ; ; Starting pCode block
                      00924 S_main__Init_Main       code
000000                00925 _Init_Main:
                      00926 ;       .line   104; main.c     void Init_Main(void) {
000000 CFD9 FFE5      00927         MOVFF   FSR2L, POSTDEC1
gpasm-1.4.0 #1106 (Oct  6 2014) build/default   10-31-2016  20:30:01        PAGE 21


LOC    OBJECT CODE    LINE  SOURCE TEXT
  VALUE

000004 CFE1 FFD9      00928         MOVFF   FSR1L, FSR2L
                      00929 ;       .line   107; main.c     RCON = 0b00000000;
Message[1301]: Using default destination of 0 (Access Bank).
000008 6A??           00930         CLRF    _RCON
                      00931 ;       .line   108; main.c     INTCON = 0b00000000;
Message[1301]: Using default destination of 0 (Access Bank).
00000A 6A??           00932         CLRF    _INTCON
                      00933 ;       .line   109; main.c     INTCON2 = 0b00000000;
Message[1301]: Using default destination of 0 (Access Bank).
00000C 6A??           00934         CLRF    _INTCON2
                      00935 ;       .line   110; main.c     INTCON3 = 0b00000000;
Message[1301]: Using default destination of 0 (Access Bank).
00000E 6A??           00936         CLRF    _INTCON3
                      00937 ;       .line   111; main.c     PIR1 = 0b00000000;
Message[1301]: Using default destination of 0 (Access Bank).
000010 6A??           00938         CLRF    _PIR1
                      00939 ;       .line   112; main.c     PIR2 = 0b00000000;
Message[1301]: Using default destination of 0 (Access Bank).
000012 6A??           00940         CLRF    _PIR2
                      00941 ;       .line   113; main.c     PIE1 = 0b00000000;
Message[1301]: Using default destination of 0 (Access Bank).
000014 6A??           00942         CLRF    _PIE1
                      00943 ;       .line   114; main.c     PIE2 = 0b00000000;
Message[1301]: Using default destination of 0 (Access Bank).
000016 6A??           00944         CLRF    _PIE2
                      00945 ;       .line   115; main.c     IPR1 = 0b00000000;
Message[1301]: Using default destination of 0 (Access Bank).
000018 6A??           00946         CLRF    _IPR1
                      00947 ;       .line   116; main.c     IPR2 = 0b00000000;
Message[1301]: Using default destination of 0 (Access Bank).
00001A 6A??           00948         CLRF    _IPR2
                      00949 ;       .line   118; main.c     OSCTUNE = 0b10000000;
00001C 0E80           00950         MOVLW   0x80
Message[1301]: Using default destination of 0 (Access Bank).
00001E 6E??           00951         MOVWF   _OSCTUNE
                      00952 ;       .line   119; main.c     OSCCON = 0b01110110;
000020 0E76           00953         MOVLW   0x76
Message[1301]: Using default destination of 0 (Access Bank).
000022 6E??           00954         MOVWF   _OSCCON
                      00955 ;       .line   121; main.c     TRISA = 0b00000000;
Message[1301]: Using default destination of 0 (Access Bank).
000024 6A??           00956         CLRF    _TRISA
                      00957 ;       .line   122; main.c     TRISB = 0b00000000;
Message[1301]: Using default destination of 0 (Access Bank).
000026 6A??           00958         CLRF    _TRISB
                      00959 ;       .line   123; main.c     TRISC = 0b00000000;
Message[1301]: Using default destination of 0 (Access Bank).
000028 6A??           00960         CLRF    _TRISC
                      00961 ;       .line   124; main.c     TRISD = 0b00000000;
Message[1301]: Using default destination of 0 (Access Bank).
00002A 6A??           00962         CLRF    _TRISD
                      00963 ;       .line   125; main.c     TRISE = 0b00000000;
Message[1301]: Using default destination of 0 (Access Bank).
gpasm-1.4.0 #1106 (Oct  6 2014) build/default   10-31-2016  20:30:01        PAGE 22


LOC    OBJECT CODE    LINE  SOURCE TEXT
  VALUE

00002C 6A??           00964         CLRF    _TRISE
                      00965 ;       .line   127; main.c     PORTA = 0b00000000;
Message[1301]: Using default destination of 0 (Access Bank).
00002E 6A??           00966         CLRF    _PORTA
                      00967 ;       .line   128; main.c     PORTB = 0b00000000;
Message[1301]: Using default destination of 0 (Access Bank).
000030 6A??           00968         CLRF    _PORTB
                      00969 ;       .line   129; main.c     PORTC = 0b00000000;
Message[1301]: Using default destination of 0 (Access Bank).
000032 6A??           00970         CLRF    _PORTC
                      00971 ;       .line   130; main.c     PORTD = 0b00000000;
Message[1301]: Using default destination of 0 (Access Bank).
000034 6A??           00972         CLRF    _PORTD
                      00973 ;       .line   131; main.c     PORTE = 0b00000000;
Message[1301]: Using default destination of 0 (Access Bank).
000036 6A??           00974         CLRF    _PORTE
                      00975 ;       .line   133; main.c     return;
000038 CFE4 FFD9      00976         MOVFF   PREINC1, FSR2L
00003C 0012           00977         RETURN  
                      00978 
                      00979 ; ; Starting pCode block
                      00980 S_main__main_Interrupt  code
000000                00981 _main_Interrupt:
                      00982 ;       .line   96; main.c      void main_Interrupt(void) __interrupt 1 {
000000 CFD8 FFE5      00983         MOVFF   STATUS, POSTDEC1
000004 CFE0 FFE5      00984         MOVFF   BSR, POSTDEC1
Message[1301]: Using default destination of 0 (Access Bank).
000008 6EE5           00985         MOVWF   POSTDEC1
00000A CFF3 FFE5      00986         MOVFF   PRODL, POSTDEC1
00000E CFF4 FFE5      00987         MOVFF   PRODH, POSTDEC1
000012 CFE9 FFE5      00988         MOVFF   FSR0L, POSTDEC1
000016 CFEA FFE5      00989         MOVFF   FSR0H, POSTDEC1
00001A CFFA FFE5      00990         MOVFF   PCLATH, POSTDEC1
00001E CFFB FFE5      00991         MOVFF   PCLATU, POSTDEC1
000022 CFD9 FFE5      00992         MOVFF   FSR2L, POSTDEC1
000026 CFE1 FFD9      00993         MOVFF   FSR1L, FSR2L
                      00994 ;       .line   97; main.c      return;
00002A CFE4 FFD9      00995         MOVFF   PREINC1, FSR2L
00002E CFE4 FFFB      00996         MOVFF   PREINC1, PCLATU
000032 CFE4 FFFA      00997         MOVFF   PREINC1, PCLATH
000036 CFE4 FFEA      00998         MOVFF   PREINC1, FSR0H
00003A CFE4 FFE9      00999         MOVFF   PREINC1, FSR0L
00003E CFE4 FFF4      01000         MOVFF   PREINC1, PRODH
000042 CFE4 FFF3      01001         MOVFF   PREINC1, PRODL
000046 50E4           01002         MOVF    PREINC1, W
000048 CFE4 FFE0      01003         MOVFF   PREINC1, BSR
00004C CFE4 FFD8      01004         MOVFF   PREINC1, STATUS
000050 0010           01005         RETFIE  
                      01006 
                      01007 
                      01008 
                      01009 ; Statistics:
                      01010 ; code size:     1290 (0x050a) bytes ( 0.98%)
gpasm-1.4.0 #1106 (Oct  6 2014) build/default   10-31-2016  20:30:01        PAGE 23


LOC    OBJECT CODE    LINE  SOURCE TEXT
  VALUE

                      01011 ;                 645 (0x0285) words
                      01012 ; udata size:      24 (0x0018) bytes ( 1.34%)
                      01013 ; access size:      4 (0x0004) bytes
                      01014 
                      01015 
                      01016         end
gpasm-1.4.0 #1106 (Oct  6 2014) build/default   10-31-2016  20:30:01        PAGE 24


SYMBOL TABLE
  LABEL                             VALUE

BSR                               00000FE0
FSR0H                             00000FEA
FSR0L                             00000FE9
FSR1L                             00000FE1
FSR2L                             00000FD9
PCLATH                            00000FFA
PCLATU                            00000FFB
POSTDEC1                          00000FE5
POSTINC1                          00000FE6
PREINC1                           00000FE4
PRODH                             00000FF4
PRODL                             00000FF3
STATUS                            00000FD8
WREG                              00000FE8
_00106_DS_                        00000124
_00109_DS_                        000001B8
_00112_DS_                        0000025E
_00115_DS_                        00000342
_00118_DS_                        000003E8
_00121_DS_                        00000454
_00125_DS_                        0000001C
_00131_DS_                        000002AE
_00137_DS_                        00000438
_00186_DS_                        000001A6
_00187_DS_                        000001A8
_00188_DS_                        0000023A
_00189_DS_                        0000023C
_00192_DS_                        00000330
_00193_DS_                        00000332
_00194_DS_                        000003C4
_00195_DS_                        000003C6
_00198_DS_                        00000446
_00199_DS_                        00000448
_00202_DS_                        00000462
_00203_DS_                        00000466
_ADCON0                           00000000
_ADCON0bits                       00000000
_ADCON1                           00000000
_ADCON1bits                       00000000
_ADCON2                           00000000
_ADCON2bits                       00000000
_ADRES                            00000000
_ADRESH                           00000000
_ADRESL                           00000000
_BAUDCON                          00000000
_BAUDCONbits                      00000000
_BAUDCTL                          00000000
_BAUDCTLbits                      00000000
_BSR                              00000000
_CCP1AS                           00000000
_CCP1ASbits                       00000000
_CCP1CON                          00000000
_CCP1CONbits                      00000000
gpasm-1.4.0 #1106 (Oct  6 2014) build/default   10-31-2016  20:30:01        PAGE 25


SYMBOL TABLE
  LABEL                             VALUE 

_CCP1DEL                          00000000
_CCP1DELbits                      00000000
_CCP2CON                          00000000
_CCP2CONbits                      00000000
_CCPR1                            00000000
_CCPR1H                           00000000
_CCPR1L                           00000000
_CCPR2                            00000000
_CCPR2H                           00000000
_CCPR2L                           00000000
_CMCON                            00000000
_CMCONbits                        00000000
_CVRCON                           00000000
_CVRCONbits                       00000000
_DDRA                             00000000
_DDRAbits                         00000000
_DDRB                             00000000
_DDRBbits                         00000000
_DDRC                             00000000
_DDRCbits                         00000000
_DDRD                             00000000
_DDRDbits                         00000000
_DDRE                             00000000
_DDREbits                         00000000
_ECCP1AS                          00000000
_ECCP1ASbits                      00000000
_ECCP1CON                         00000000
_ECCP1CONbits                     00000000
_ECCP1DEL                         00000000
_ECCP1DELbits                     00000000
_EEADR                            00000000
_EECON1                           00000000
_EECON1bits                       00000000
_EECON2                           00000000
_EEDATA                           00000000
_FSR0H                            00000000
_FSR0L                            00000000
_FSR1H                            00000000
_FSR1L                            00000000
_FSR2H                            00000000
_FSR2L                            00000000
_HLVDCON                          00000000
_HLVDCONbits                      00000000
_INDF0                            00000000
_INDF1                            00000000
_INDF2                            00000000
_INTCON                           00000000
_INTCON2                          00000000
_INTCON2bits                      00000000
_INTCON3                          00000000
_INTCON3bits                      00000000
_INTCONbits                       00000000
_IPR1                             00000000
gpasm-1.4.0 #1106 (Oct  6 2014) build/default   10-31-2016  20:30:01        PAGE 26


SYMBOL TABLE
  LABEL                             VALUE 

_IPR1bits                         00000000
_IPR2                             00000000
_IPR2bits                         00000000
_InicializaAD                     00000000
_Init_Main                        00000000
_LATA                             00000000
_LATAbits                         00000000
_LATB                             00000000
_LATBbits                         00000000
_LATC                             00000000
_LATCbits                         00000000
_LATD                             00000000
_LATDbits                         00000000
_LATE                             00000000
_LATEbits                         00000000
_LVDCON                           00000000
_LVDCONbits                       00000000
_LeValorAD                        00000000
_OSCCON                           00000000
_OSCCONbits                       00000000
_OSCTUNE                          00000000
_OSCTUNEbits                      00000000
_PC                               00000000
_PCL                              00000000
_PCLATH                           00000000
_PCLATU                           00000000
_PIE1                             00000000
_PIE1bits                         00000000
_PIE2                             00000000
_PIE2bits                         00000000
_PIR1                             00000000
_PIR1bits                         00000000
_PIR2                             00000000
_PIR2bits                         00000000
_PLUSW0                           00000000
_PLUSW1                           00000000
_PLUSW2                           00000000
_PORTA                            00000000
_PORTAbits                        00000000
_PORTB                            00000000
_PORTBbits                        00000000
_PORTC                            00000000
_PORTCbits                        00000000
_PORTD                            00000000
_PORTDbits                        00000000
_PORTE                            00000000
_PORTEbits                        00000000
_POSTDEC0                         00000000
_POSTDEC1                         00000000
_POSTDEC2                         00000000
_POSTINC0                         00000000
_POSTINC1                         00000000
_POSTINC2                         00000000
gpasm-1.4.0 #1106 (Oct  6 2014) build/default   10-31-2016  20:30:01        PAGE 27


SYMBOL TABLE
  LABEL                             VALUE 

_PR2                              00000000
_PREINC0                          00000000
_PREINC1                          00000000
_PREINC2                          00000000
_PROD                             00000000
_PRODH                            00000000
_PRODL                            00000000
_RCON                             00000000
_RCONbits                         00000000
_RCREG                            00000000
_RCSTA                            00000000
_RCSTAbits                        00000000
_SPBRG                            00000000
_SPBRGH                           00000000
_SPPCFG                           00000000
_SPPCFGbits                       00000000
_SPPCON                           00000000
_SPPCONbits                       00000000
_SPPDATA                          00000000
_SPPEPS                           00000000
_SPPEPSbits                       00000000
_SSPADD                           00000000
_SSPBUF                           00000000
_SSPCON1                          00000000
_SSPCON1bits                      00000000
_SSPCON2                          00000000
_SSPCON2bits                      00000000
_SSPSTAT                          00000000
_SSPSTATbits                      00000000
_STATUS                           00000000
_STATUSbits                       00000000
_STKPTR                           00000000
_STKPTRbits                       00000000
_T0CON                            00000000
_T0CONbits                        00000000
_T1CON                            00000000
_T1CONbits                        00000000
_T2CON                            00000000
_T2CONbits                        00000000
_T3CON                            00000000
_T3CONbits                        00000000
_TABLAT                           00000000
_TBLPTR                           00000000
_TBLPTRH                          00000000
_TBLPTRL                          00000000
_TBLPTRU                          00000000
_TMR0                             00000000
_TMR0H                            00000000
_TMR0L                            00000000
_TMR1                             00000000
_TMR1H                            00000000
_TMR1L                            00000000
_TMR2                             00000000
gpasm-1.4.0 #1106 (Oct  6 2014) build/default   10-31-2016  20:30:01        PAGE 28


SYMBOL TABLE
  LABEL                             VALUE 

_TMR3                             00000000
_TMR3H                            00000000
_TMR3L                            00000000
_TOS                              00000000
_TOSH                             00000000
_TOSL                             00000000
_TOSU                             00000000
_TRISA                            00000000
_TRISAbits                        00000000
_TRISB                            00000000
_TRISBbits                        00000000
_TRISC                            00000000
_TRISCbits                        00000000
_TRISD                            00000000
_TRISDbits                        00000000
_TRISE                            00000000
_TRISEbits                        00000000
_TXREG                            00000000
_TXSTA                            00000000
_TXSTAbits                        00000000
_UADDR                            00000000
_UADDRbits                        00000000
_UCFG                             00000000
_UCFGbits                         00000000
_UCON                             00000000
_UCONbits                         00000000
_UEIE                             00000000
_UEIEbits                         00000000
_UEIR                             00000000
_UEIRbits                         00000000
_UEP0                             00000000
_UEP0bits                         00000000
_UEP1                             00000000
_UEP10                            00000000
_UEP10bits                        00000000
_UEP11                            00000000
_UEP11bits                        00000000
_UEP12                            00000000
_UEP12bits                        00000000
_UEP13                            00000000
_UEP13bits                        00000000
_UEP14                            00000000
_UEP14bits                        00000000
_UEP15                            00000000
_UEP15bits                        00000000
_UEP1bits                         00000000
_UEP2                             00000000
_UEP2bits                         00000000
_UEP3                             00000000
_UEP3bits                         00000000
_UEP4                             00000000
_UEP4bits                         00000000
_UEP5                             00000000
gpasm-1.4.0 #1106 (Oct  6 2014) build/default   10-31-2016  20:30:01        PAGE 29


SYMBOL TABLE
  LABEL                             VALUE 

_UEP5bits                         00000000
_UEP6                             00000000
_UEP6bits                         00000000
_UEP7                             00000000
_UEP7bits                         00000000
_UEP8                             00000000
_UEP8bits                         00000000
_UEP9                             00000000
_UEP9bits                         00000000
_UFRM                             00000000
_UFRMH                            00000000
_UFRMHbits                        00000000
_UFRML                            00000000
_UFRMLbits                        00000000
_UIE                              00000000
_UIEbits                          00000000
_UIR                              00000000
_UIRbits                          00000000
_USTAT                            00000000
_USTATbits                        00000000
_WDTCON                           00000000
_WDTCONbits                       00000000
_WREG                             00000000
__18F4550                         00000001
__ACC_RAM_LOW_END                 0000005F
__CODE_END                        00007FFF
__CODE_START                      00000000
__EEPROM_END                      00F000FF
__EEPROM_START                    00F00000
__VECTOR_INT_HIGH                 00000008
__VECTOR_INT_LOW                  00000018
__VECTOR_RESET                    00000000
___fsadd                          00000000
___fsdiv                          00000000
___fsgt                           00000000
___fslt                           00000000
___fsmul                          00000000
___fssub                          00000000
___sint2fs                        00000000
_flag1                            00000000
_flag2                            00000000
_i                                00000000
_j                                00000000
_main                             00000000
_main_Interrupt                   00000000
_max                              00000000
_min                              00000000
_valor                            00000000
ivec_0x1_main_Interrupt           00000008
r0x00                             00000000
r0x01                             00000001
r0x02                             00000002
r0x03                             00000003

gpasm-1.4.0 #1106 (Oct  6 2014) build/default   10-31-2016  20:30:01        PAGE 30




Errors   :     0
Warnings :     0 reported,     0 suppressed
Messages :   149 reported,     0 suppressed

