gpasm-1.4.0 #1106 (Oct  6 2014) build/default   10-31-2016  20:30:01        PAGE  1


LOC    OBJECT CODE    LINE  SOURCE TEXT
  VALUE

                      00001 ;--------------------------------------------------------
                      00002 ; File Created by SDCC : free open source ANSI-C Compiler
                      00003 ; Version 3.4.0 #8981 (Apr  5 2014) (MINGW64)
                      00004 ; This file was generated Mon Oct 31 20:30:01 2016
                      00005 ;--------------------------------------------------------
                      00006 ; PIC16 port for the Microchip 16-bit core micros
                      00007 ;--------------------------------------------------------
                      00008         list    p=18f4550
                      00009         radix   dec
                      00010 
                      00011 
                      00012 ;--------------------------------------------------------
                      00013 ; public variables in this module
                      00014 ;--------------------------------------------------------
  0000                00015         global  _SetaPWM1
  0000                00016         global  _SetaPWM2
  0000                00017         global  _SetaFreqPWM
  0000                00018         global  _InicializaPWM
                      00019 
                      00020 ;--------------------------------------------------------
                      00021 ; extern variables in this module
                      00022 ;--------------------------------------------------------
  0000                00023         extern  _SPPCFGbits
  0000                00024         extern  _SPPEPSbits
  0000                00025         extern  _SPPCONbits
  0000                00026         extern  _UFRMLbits
  0000                00027         extern  _UFRMHbits
  0000                00028         extern  _UIRbits
  0000                00029         extern  _UIEbits
  0000                00030         extern  _UEIRbits
  0000                00031         extern  _UEIEbits
  0000                00032         extern  _USTATbits
  0000                00033         extern  _UCONbits
  0000                00034         extern  _UADDRbits
  0000                00035         extern  _UCFGbits
  0000                00036         extern  _UEP0bits
  0000                00037         extern  _UEP1bits
  0000                00038         extern  _UEP2bits
  0000                00039         extern  _UEP3bits
  0000                00040         extern  _UEP4bits
  0000                00041         extern  _UEP5bits
  0000                00042         extern  _UEP6bits
  0000                00043         extern  _UEP7bits
  0000                00044         extern  _UEP8bits
  0000                00045         extern  _UEP9bits
  0000                00046         extern  _UEP10bits
  0000                00047         extern  _UEP11bits
  0000                00048         extern  _UEP12bits
  0000                00049         extern  _UEP13bits
  0000                00050         extern  _UEP14bits
  0000                00051         extern  _UEP15bits
  0000                00052         extern  _PORTAbits
  0000                00053         extern  _PORTBbits
gpasm-1.4.0 #1106 (Oct  6 2014) build/default   10-31-2016  20:30:01        PAGE  2


LOC    OBJECT CODE    LINE  SOURCE TEXT
  VALUE

  0000                00054         extern  _PORTCbits
  0000                00055         extern  _PORTDbits
  0000                00056         extern  _PORTEbits
  0000                00057         extern  _LATAbits
  0000                00058         extern  _LATBbits
  0000                00059         extern  _LATCbits
  0000                00060         extern  _LATDbits
  0000                00061         extern  _LATEbits
  0000                00062         extern  _DDRAbits
  0000                00063         extern  _TRISAbits
  0000                00064         extern  _DDRBbits
  0000                00065         extern  _TRISBbits
  0000                00066         extern  _DDRCbits
  0000                00067         extern  _TRISCbits
  0000                00068         extern  _DDRDbits
  0000                00069         extern  _TRISDbits
  0000                00070         extern  _DDREbits
  0000                00071         extern  _TRISEbits
  0000                00072         extern  _OSCTUNEbits
  0000                00073         extern  _PIE1bits
  0000                00074         extern  _PIR1bits
  0000                00075         extern  _IPR1bits
  0000                00076         extern  _PIE2bits
  0000                00077         extern  _PIR2bits
  0000                00078         extern  _IPR2bits
  0000                00079         extern  _EECON1bits
  0000                00080         extern  _RCSTAbits
  0000                00081         extern  _TXSTAbits
  0000                00082         extern  _T3CONbits
  0000                00083         extern  _CMCONbits
  0000                00084         extern  _CVRCONbits
  0000                00085         extern  _CCP1ASbits
  0000                00086         extern  _ECCP1ASbits
  0000                00087         extern  _CCP1DELbits
  0000                00088         extern  _ECCP1DELbits
  0000                00089         extern  _BAUDCONbits
  0000                00090         extern  _BAUDCTLbits
  0000                00091         extern  _CCP2CONbits
  0000                00092         extern  _CCP1CONbits
  0000                00093         extern  _ECCP1CONbits
  0000                00094         extern  _ADCON2bits
  0000                00095         extern  _ADCON1bits
  0000                00096         extern  _ADCON0bits
  0000                00097         extern  _SSPCON2bits
  0000                00098         extern  _SSPCON1bits
  0000                00099         extern  _SSPSTATbits
  0000                00100         extern  _T2CONbits
  0000                00101         extern  _T1CONbits
  0000                00102         extern  _RCONbits
  0000                00103         extern  _WDTCONbits
  0000                00104         extern  _HLVDCONbits
  0000                00105         extern  _LVDCONbits
  0000                00106         extern  _OSCCONbits
gpasm-1.4.0 #1106 (Oct  6 2014) build/default   10-31-2016  20:30:01        PAGE  3


LOC    OBJECT CODE    LINE  SOURCE TEXT
  VALUE

  0000                00107         extern  _T0CONbits
  0000                00108         extern  _STATUSbits
  0000                00109         extern  _INTCON3bits
  0000                00110         extern  _INTCON2bits
  0000                00111         extern  _INTCONbits
  0000                00112         extern  _STKPTRbits
  0000                00113         extern  _SPPDATA
  0000                00114         extern  _SPPCFG
  0000                00115         extern  _SPPEPS
  0000                00116         extern  _SPPCON
  0000                00117         extern  _UFRM
  0000                00118         extern  _UFRML
  0000                00119         extern  _UFRMH
  0000                00120         extern  _UIR
  0000                00121         extern  _UIE
  0000                00122         extern  _UEIR
  0000                00123         extern  _UEIE
  0000                00124         extern  _USTAT
  0000                00125         extern  _UCON
  0000                00126         extern  _UADDR
  0000                00127         extern  _UCFG
  0000                00128         extern  _UEP0
  0000                00129         extern  _UEP1
  0000                00130         extern  _UEP2
  0000                00131         extern  _UEP3
  0000                00132         extern  _UEP4
  0000                00133         extern  _UEP5
  0000                00134         extern  _UEP6
  0000                00135         extern  _UEP7
  0000                00136         extern  _UEP8
  0000                00137         extern  _UEP9
  0000                00138         extern  _UEP10
  0000                00139         extern  _UEP11
  0000                00140         extern  _UEP12
  0000                00141         extern  _UEP13
  0000                00142         extern  _UEP14
  0000                00143         extern  _UEP15
  0000                00144         extern  _PORTA
  0000                00145         extern  _PORTB
  0000                00146         extern  _PORTC
  0000                00147         extern  _PORTD
  0000                00148         extern  _PORTE
  0000                00149         extern  _LATA
  0000                00150         extern  _LATB
  0000                00151         extern  _LATC
  0000                00152         extern  _LATD
  0000                00153         extern  _LATE
  0000                00154         extern  _DDRA
  0000                00155         extern  _TRISA
  0000                00156         extern  _DDRB
  0000                00157         extern  _TRISB
  0000                00158         extern  _DDRC
  0000                00159         extern  _TRISC
gpasm-1.4.0 #1106 (Oct  6 2014) build/default   10-31-2016  20:30:01        PAGE  4


LOC    OBJECT CODE    LINE  SOURCE TEXT
  VALUE

  0000                00160         extern  _DDRD
  0000                00161         extern  _TRISD
  0000                00162         extern  _DDRE
  0000                00163         extern  _TRISE
  0000                00164         extern  _OSCTUNE
  0000                00165         extern  _PIE1
  0000                00166         extern  _PIR1
  0000                00167         extern  _IPR1
  0000                00168         extern  _PIE2
  0000                00169         extern  _PIR2
  0000                00170         extern  _IPR2
  0000                00171         extern  _EECON1
  0000                00172         extern  _EECON2
  0000                00173         extern  _EEDATA
  0000                00174         extern  _EEADR
  0000                00175         extern  _RCSTA
  0000                00176         extern  _TXSTA
  0000                00177         extern  _TXREG
  0000                00178         extern  _RCREG
  0000                00179         extern  _SPBRG
  0000                00180         extern  _SPBRGH
  0000                00181         extern  _T3CON
  0000                00182         extern  _TMR3
  0000                00183         extern  _TMR3L
  0000                00184         extern  _TMR3H
  0000                00185         extern  _CMCON
  0000                00186         extern  _CVRCON
  0000                00187         extern  _CCP1AS
  0000                00188         extern  _ECCP1AS
  0000                00189         extern  _CCP1DEL
  0000                00190         extern  _ECCP1DEL
  0000                00191         extern  _BAUDCON
  0000                00192         extern  _BAUDCTL
  0000                00193         extern  _CCP2CON
  0000                00194         extern  _CCPR2
  0000                00195         extern  _CCPR2L
  0000                00196         extern  _CCPR2H
  0000                00197         extern  _CCP1CON
  0000                00198         extern  _ECCP1CON
  0000                00199         extern  _CCPR1
  0000                00200         extern  _CCPR1L
  0000                00201         extern  _CCPR1H
  0000                00202         extern  _ADCON2
  0000                00203         extern  _ADCON1
  0000                00204         extern  _ADCON0
  0000                00205         extern  _ADRES
  0000                00206         extern  _ADRESL
  0000                00207         extern  _ADRESH
  0000                00208         extern  _SSPCON2
  0000                00209         extern  _SSPCON1
  0000                00210         extern  _SSPSTAT
  0000                00211         extern  _SSPADD
  0000                00212         extern  _SSPBUF
gpasm-1.4.0 #1106 (Oct  6 2014) build/default   10-31-2016  20:30:01        PAGE  5


LOC    OBJECT CODE    LINE  SOURCE TEXT
  VALUE

  0000                00213         extern  _T2CON
  0000                00214         extern  _PR2
  0000                00215         extern  _TMR2
  0000                00216         extern  _T1CON
  0000                00217         extern  _TMR1
  0000                00218         extern  _TMR1L
  0000                00219         extern  _TMR1H
  0000                00220         extern  _RCON
  0000                00221         extern  _WDTCON
  0000                00222         extern  _HLVDCON
  0000                00223         extern  _LVDCON
  0000                00224         extern  _OSCCON
  0000                00225         extern  _T0CON
  0000                00226         extern  _TMR0
  0000                00227         extern  _TMR0L
  0000                00228         extern  _TMR0H
  0000                00229         extern  _STATUS
  0000                00230         extern  _FSR2L
  0000                00231         extern  _FSR2H
  0000                00232         extern  _PLUSW2
  0000                00233         extern  _PREINC2
  0000                00234         extern  _POSTDEC2
  0000                00235         extern  _POSTINC2
  0000                00236         extern  _INDF2
  0000                00237         extern  _BSR
  0000                00238         extern  _FSR1L
  0000                00239         extern  _FSR1H
  0000                00240         extern  _PLUSW1
  0000                00241         extern  _PREINC1
  0000                00242         extern  _POSTDEC1
  0000                00243         extern  _POSTINC1
  0000                00244         extern  _INDF1
  0000                00245         extern  _WREG
  0000                00246         extern  _FSR0L
  0000                00247         extern  _FSR0H
  0000                00248         extern  _PLUSW0
  0000                00249         extern  _PREINC0
  0000                00250         extern  _POSTDEC0
  0000                00251         extern  _POSTINC0
  0000                00252         extern  _INDF0
  0000                00253         extern  _INTCON3
  0000                00254         extern  _INTCON2
  0000                00255         extern  _INTCON
  0000                00256         extern  _PROD
  0000                00257         extern  _PRODL
  0000                00258         extern  _PRODH
  0000                00259         extern  _TABLAT
  0000                00260         extern  _TBLPTR
  0000                00261         extern  _TBLPTRL
  0000                00262         extern  _TBLPTRH
  0000                00263         extern  _TBLPTRU
  0000                00264         extern  _PC
  0000                00265         extern  _PCL
gpasm-1.4.0 #1106 (Oct  6 2014) build/default   10-31-2016  20:30:01        PAGE  6


LOC    OBJECT CODE    LINE  SOURCE TEXT
  VALUE

  0000                00266         extern  _PCLATH
  0000                00267         extern  _PCLATU
  0000                00268         extern  _STKPTR
  0000                00269         extern  _TOS
  0000                00270         extern  _TOSL
  0000                00271         extern  _TOSH
  0000                00272         extern  _TOSU
  0000                00273         extern  __mulint
  0000                00274         extern  __divuint
  0000                00275         extern  __divslong
                      00276 
                      00277 ;--------------------------------------------------------
                      00278 ;       Equates to used internal registers
                      00279 ;--------------------------------------------------------
  00000FD8            00280 STATUS  equ     0xfd8
  00000FE9            00281 FSR0L   equ     0xfe9
  00000FE1            00282 FSR1L   equ     0xfe1
  00000FD9            00283 FSR2L   equ     0xfd9
  00000FE5            00284 POSTDEC1        equ     0xfe5
  00000FE4            00285 PREINC1 equ     0xfe4
  00000FDB            00286 PLUSW2  equ     0xfdb
  00000FF3            00287 PRODL   equ     0xff3
  00000FF4            00288 PRODH   equ     0xff4
                      00289 
                      00290 
                      00291 ; Internal registers
                      00292 .registers      udata_ovr       0x0000
000000                00293 r0x00   res     1
000001                00294 r0x01   res     1
000002                00295 r0x02   res     1
000003                00296 r0x03   res     1
                      00297 
                      00298 ;--------------------------------------------------------
                      00299 ; global & static initialisations
                      00300 ;--------------------------------------------------------
                      00301 ; I code from now on!
                      00302 ; ; Starting pCode block
                      00303 S_pwm__InicializaPWM    code
000000                00304 _InicializaPWM:
                      00305 ;       .line   60; Bibliotecas/pwm.c   void InicializaPWM(void)
000000 CFD9 FFE5      00306         MOVFF   FSR2L, POSTDEC1
000004 CFE1 FFD9      00307         MOVFF   FSR1L, FSR2L
000008 C??? F???      00308         MOVFF   r0x00, POSTDEC1
                      00309 ;       .line   62; Bibliotecas/pwm.c   BitClr(TRISC,1);//configura os pinos correspondentes como saídas
00000C 50??           00310         MOVF    _TRISC, W
Message[1301]: Using default destination of 0 (Access Bank).
00000E 6E??           00311         MOVWF   r0x00
000010 0EFD           00312         MOVLW   0xfd
000012 14??           00313         ANDWF   r0x00, W
Message[1301]: Using default destination of 0 (Access Bank).
000014 6E??           00314         MOVWF   _TRISC
                      00315 ;       .line   63; Bibliotecas/pwm.c   BitClr(TRISC,2);
000016 50??           00316         MOVF    _TRISC, W
gpasm-1.4.0 #1106 (Oct  6 2014) build/default   10-31-2016  20:30:01        PAGE  7


LOC    OBJECT CODE    LINE  SOURCE TEXT
  VALUE

Message[1301]: Using default destination of 0 (Access Bank).
000018 6E??           00317         MOVWF   r0x00
00001A 0EFB           00318         MOVLW   0xfb
00001C 14??           00319         ANDWF   r0x00, W
Message[1301]: Using default destination of 0 (Access Bank).
00001E 6E??           00320         MOVWF   _TRISC
                      00321 ;       .line   65; Bibliotecas/pwm.c   T2CON |= 0b00000011; //configura o prescale do timer 2 para 1:16
000020 0E03           00322         MOVLW   0x03
000022 12??           00323         IORWF   _T2CON, F
                      00324 ;       .line   66; Bibliotecas/pwm.c   BitSet(T2CON,2); //Liga o timer 2
000024 84??           00325         BSF     _T2CON, 2
                      00326 ;       .line   69; Bibliotecas/pwm.c   CCP1CON |= 0b00001100;  //configura CCP1 como um PWM
000026 0E0C           00327         MOVLW   0x0c
000028 12??           00328         IORWF   _CCP1CON, F
                      00329 ;       .line   70; Bibliotecas/pwm.c   CCP2CON |= 0b00001100;  //configura CCP2 como um PWM
00002A 0E0C           00330         MOVLW   0x0c
00002C 12??           00331         IORWF   _CCP2CON, F
00002E CFE4 F000      00332         MOVFF   PREINC1, r0x00
000032 CFE4 FFD9      00333         MOVFF   PREINC1, FSR2L
000036 0012           00334         RETURN  
                      00335 
                      00336 ; ; Starting pCode block
                      00337 S_pwm__SetaFreqPWM      code
000000                00338 _SetaFreqPWM:
                      00339 ;       .line   53; Bibliotecas/pwm.c   void SetaFreqPWM(unsigned int freq)
000000 CFD9 FFE5      00340         MOVFF   FSR2L, POSTDEC1
000004 CFE1 FFD9      00341         MOVFF   FSR1L, FSR2L
000008 C??? F???      00342         MOVFF   r0x00, POSTDEC1
00000C C??? F???      00343         MOVFF   r0x01, POSTDEC1
000010 C??? F???      00344         MOVFF   r0x02, POSTDEC1
000014 C??? F???      00345         MOVFF   r0x03, POSTDEC1
000018 0E02           00346         MOVLW   0x02
00001A CFDB F000      00347         MOVFF   PLUSW2, r0x00
00001E 0E03           00348         MOVLW   0x03
000020 CFDB F000      00349         MOVFF   PLUSW2, r0x01
                      00350 ;       .line   57; Bibliotecas/pwm.c   PR2 = (125000/(freq)) - 1;
Message[1301]: Using default destination of 0 (Access Bank).
000024 6A??           00351         CLRF    r0x02
Message[1301]: Using default destination of 0 (Access Bank).
000026 6A??           00352         CLRF    r0x03
000028 50??           00353         MOVF    r0x03, W
Message[1301]: Using default destination of 0 (Access Bank).
00002A 6EE5           00354         MOVWF   POSTDEC1
00002C 50??           00355         MOVF    r0x02, W
Message[1301]: Using default destination of 0 (Access Bank).
00002E 6EE5           00356         MOVWF   POSTDEC1
000030 50??           00357         MOVF    r0x01, W
Message[1301]: Using default destination of 0 (Access Bank).
000032 6EE5           00358         MOVWF   POSTDEC1
000034 50??           00359         MOVF    r0x00, W
Message[1301]: Using default destination of 0 (Access Bank).
000036 6EE5           00360         MOVWF   POSTDEC1
000038 0E00           00361         MOVLW   0x00
gpasm-1.4.0 #1106 (Oct  6 2014) build/default   10-31-2016  20:30:01        PAGE  8


LOC    OBJECT CODE    LINE  SOURCE TEXT
  VALUE

Message[1301]: Using default destination of 0 (Access Bank).
00003A 6EE5           00362         MOVWF   POSTDEC1
00003C 0E01           00363         MOVLW   0x01
Message[1301]: Using default destination of 0 (Access Bank).
00003E 6EE5           00364         MOVWF   POSTDEC1
000040 0EE8           00365         MOVLW   0xe8
Message[1301]: Using default destination of 0 (Access Bank).
000042 6EE5           00366         MOVWF   POSTDEC1
000044 0E48           00367         MOVLW   0x48
Message[1301]: Using default destination of 0 (Access Bank).
000046 6EE5           00368         MOVWF   POSTDEC1
000048 EC?? F0??      00369         CALL    __divslong
Message[1301]: Using default destination of 0 (Access Bank).
00004C 6E??           00370         MOVWF   r0x00
00004E CFF3 F000      00371         MOVFF   PRODL, r0x01
000052 CFF4 F000      00372         MOVFF   PRODH, r0x02
000056 CFE9 F000      00373         MOVFF   FSR0L, r0x03
00005A 0E08           00374         MOVLW   0x08
00005C 26E1           00375         ADDWF   FSR1L, F
00005E 04??           00376         DECF    r0x00, W
Message[1301]: Using default destination of 0 (Access Bank).
000060 6E??           00377         MOVWF   _PR2
000062 CFE4 F000      00378         MOVFF   PREINC1, r0x03
000066 CFE4 F000      00379         MOVFF   PREINC1, r0x02
00006A CFE4 F000      00380         MOVFF   PREINC1, r0x01
00006E CFE4 F000      00381         MOVFF   PREINC1, r0x00
000072 CFE4 FFD9      00382         MOVFF   PREINC1, FSR2L
000076 0012           00383         RETURN  
                      00384 
                      00385 ; ; Starting pCode block
                      00386 S_pwm__SetaPWM2 code
000000                00387 _SetaPWM2:
                      00388 ;       .line   41; Bibliotecas/pwm.c   void SetaPWM2(unsigned char porcento)
000000 CFD9 FFE5      00389         MOVFF   FSR2L, POSTDEC1
000004 CFE1 FFD9      00390         MOVFF   FSR1L, FSR2L
000008 C??? F???      00391         MOVFF   r0x00, POSTDEC1
00000C C??? F???      00392         MOVFF   r0x01, POSTDEC1
000010 C??? F???      00393         MOVFF   r0x02, POSTDEC1
000014 C??? F???      00394         MOVFF   r0x03, POSTDEC1
000018 0E02           00395         MOVLW   0x02
00001A CFDB F000      00396         MOVFF   PLUSW2, r0x00
                      00397 ;       .line   43; Bibliotecas/pwm.c   unsigned int val = ((unsigned int)porcento) *(PR2+1);
Message[1301]: Using default destination of 0 (Access Bank).
00001E 6A??           00398         CLRF    r0x01
000020 C??? F???      00399         MOVFF   _PR2, r0x02
Message[1301]: Using default destination of 0 (Access Bank).
000024 6A??           00400         CLRF    r0x03
000026 4A??           00401         INFSNZ  r0x02, F
000028 2A??           00402         INCF    r0x03, F
00002A 50??           00403         MOVF    r0x03, W
Message[1301]: Using default destination of 0 (Access Bank).
00002C 6EE5           00404         MOVWF   POSTDEC1
00002E 50??           00405         MOVF    r0x02, W
gpasm-1.4.0 #1106 (Oct  6 2014) build/default   10-31-2016  20:30:01        PAGE  9


LOC    OBJECT CODE    LINE  SOURCE TEXT
  VALUE

Message[1301]: Using default destination of 0 (Access Bank).
000030 6EE5           00406         MOVWF   POSTDEC1
000032 50??           00407         MOVF    r0x01, W
Message[1301]: Using default destination of 0 (Access Bank).
000034 6EE5           00408         MOVWF   POSTDEC1
000036 50??           00409         MOVF    r0x00, W
Message[1301]: Using default destination of 0 (Access Bank).
000038 6EE5           00410         MOVWF   POSTDEC1
00003A EC?? F0??      00411         CALL    __mulint
Message[1301]: Using default destination of 0 (Access Bank).
00003E 6E??           00412         MOVWF   r0x00
000040 CFF3 F000      00413         MOVFF   PRODL, r0x01
000044 0E04           00414         MOVLW   0x04
000046 26E1           00415         ADDWF   FSR1L, F
                      00416 ;       .line   44; Bibliotecas/pwm.c   val /= 25;
000048 0E00           00417         MOVLW   0x00
Message[1301]: Using default destination of 0 (Access Bank).
00004A 6EE5           00418         MOVWF   POSTDEC1
00004C 0E19           00419         MOVLW   0x19
Message[1301]: Using default destination of 0 (Access Bank).
00004E 6EE5           00420         MOVWF   POSTDEC1
000050 50??           00421         MOVF    r0x01, W
Message[1301]: Using default destination of 0 (Access Bank).
000052 6EE5           00422         MOVWF   POSTDEC1
000054 50??           00423         MOVF    r0x00, W
Message[1301]: Using default destination of 0 (Access Bank).
000056 6EE5           00424         MOVWF   POSTDEC1
000058 EC?? F0??      00425         CALL    __divuint
Message[1301]: Using default destination of 0 (Access Bank).
00005C 6E??           00426         MOVWF   r0x00
00005E CFF3 F000      00427         MOVFF   PRODL, r0x01
000062 0E04           00428         MOVLW   0x04
000064 26E1           00429         ADDWF   FSR1L, F
                      00430 ;       .line   46; Bibliotecas/pwm.c   val &= 0x03ff;
000066 0E03           00431         MOVLW   0x03
000068 16??           00432         ANDWF   r0x01, F
                      00433 ;       .line   48; Bibliotecas/pwm.c   CCPR2L = val >> 2;
00006A 90D8           00434         BCF     STATUS, 0
00006C 30??           00435         RRCF    r0x01, W
Message[1301]: Using default destination of 0 (Access Bank).
00006E 6E??           00436         MOVWF   r0x03
000070 30??           00437         RRCF    r0x00, W
Message[1301]: Using default destination of 0 (Access Bank).
000072 6E??           00438         MOVWF   r0x02
000074 90D8           00439         BCF     STATUS, 0
000076 32??           00440         RRCF    r0x03, F
000078 32??           00441         RRCF    r0x02, F
00007A 50??           00442         MOVF    r0x02, W
Message[1301]: Using default destination of 0 (Access Bank).
00007C 6E??           00443         MOVWF   _CCPR2L
                      00444 ;       .line   50; Bibliotecas/pwm.c   CCP2CON |= (val & 0x0003) << 4;
00007E 0E03           00445         MOVLW   0x03
000080 16??           00446         ANDWF   r0x00, F
gpasm-1.4.0 #1106 (Oct  6 2014) build/default   10-31-2016  20:30:01        PAGE 10


LOC    OBJECT CODE    LINE  SOURCE TEXT
  VALUE

Message[1301]: Using default destination of 0 (Access Bank).
000082 6A??           00447         CLRF    r0x01
000084 38??           00448         SWAPF   r0x00, W
000086 0BF0           00449         ANDLW   0xf0
Message[1301]: Using default destination of 0 (Access Bank).
000088 6E??           00450         MOVWF   r0x01
00008A 50??           00451         MOVF    r0x01, W
00008C 12??           00452         IORWF   _CCP2CON, F
00008E CFE4 F000      00453         MOVFF   PREINC1, r0x03
000092 CFE4 F000      00454         MOVFF   PREINC1, r0x02
000096 CFE4 F000      00455         MOVFF   PREINC1, r0x01
00009A CFE4 F000      00456         MOVFF   PREINC1, r0x00
00009E CFE4 FFD9      00457         MOVFF   PREINC1, FSR2L
0000A2 0012           00458         RETURN  
                      00459 
                      00460 ; ; Starting pCode block
                      00461 S_pwm__SetaPWM1 code
000000                00462 _SetaPWM1:
                      00463 ;       .line   24; Bibliotecas/pwm.c   void SetaPWM1(unsigned char porcento)
000000 CFD9 FFE5      00464         MOVFF   FSR2L, POSTDEC1
000004 CFE1 FFD9      00465         MOVFF   FSR1L, FSR2L
000008 C??? F???      00466         MOVFF   r0x00, POSTDEC1
00000C C??? F???      00467         MOVFF   r0x01, POSTDEC1
000010 C??? F???      00468         MOVFF   r0x02, POSTDEC1
000014 C??? F???      00469         MOVFF   r0x03, POSTDEC1
000018 0E02           00470         MOVLW   0x02
00001A CFDB F000      00471         MOVFF   PLUSW2, r0x00
                      00472 ;       .line   31; Bibliotecas/pwm.c   unsigned int val = ((unsigned int)porcento) *(PR2+1);
Message[1301]: Using default destination of 0 (Access Bank).
00001E 6A??           00473         CLRF    r0x01
000020 C??? F???      00474         MOVFF   _PR2, r0x02
Message[1301]: Using default destination of 0 (Access Bank).
000024 6A??           00475         CLRF    r0x03
000026 4A??           00476         INFSNZ  r0x02, F
000028 2A??           00477         INCF    r0x03, F
00002A 50??           00478         MOVF    r0x03, W
Message[1301]: Using default destination of 0 (Access Bank).
00002C 6EE5           00479         MOVWF   POSTDEC1
00002E 50??           00480         MOVF    r0x02, W
Message[1301]: Using default destination of 0 (Access Bank).
000030 6EE5           00481         MOVWF   POSTDEC1
000032 50??           00482         MOVF    r0x01, W
Message[1301]: Using default destination of 0 (Access Bank).
000034 6EE5           00483         MOVWF   POSTDEC1
000036 50??           00484         MOVF    r0x00, W
Message[1301]: Using default destination of 0 (Access Bank).
000038 6EE5           00485         MOVWF   POSTDEC1
00003A EC?? F0??      00486         CALL    __mulint
Message[1301]: Using default destination of 0 (Access Bank).
00003E 6E??           00487         MOVWF   r0x00
000040 CFF3 F000      00488         MOVFF   PRODL, r0x01
000044 0E04           00489         MOVLW   0x04
000046 26E1           00490         ADDWF   FSR1L, F
gpasm-1.4.0 #1106 (Oct  6 2014) build/default   10-31-2016  20:30:01        PAGE 11


LOC    OBJECT CODE    LINE  SOURCE TEXT
  VALUE

                      00491 ;       .line   32; Bibliotecas/pwm.c   val = val / 25;
000048 0E00           00492         MOVLW   0x00
Message[1301]: Using default destination of 0 (Access Bank).
00004A 6EE5           00493         MOVWF   POSTDEC1
00004C 0E19           00494         MOVLW   0x19
Message[1301]: Using default destination of 0 (Access Bank).
00004E 6EE5           00495         MOVWF   POSTDEC1
000050 50??           00496         MOVF    r0x01, W
Message[1301]: Using default destination of 0 (Access Bank).
000052 6EE5           00497         MOVWF   POSTDEC1
000054 50??           00498         MOVF    r0x00, W
Message[1301]: Using default destination of 0 (Access Bank).
000056 6EE5           00499         MOVWF   POSTDEC1
000058 EC?? F0??      00500         CALL    __divuint
Message[1301]: Using default destination of 0 (Access Bank).
00005C 6E??           00501         MOVWF   r0x00
00005E CFF3 F000      00502         MOVFF   PRODL, r0x01
000062 0E04           00503         MOVLW   0x04
000064 26E1           00504         ADDWF   FSR1L, F
                      00505 ;       .line   34; Bibliotecas/pwm.c   val &= 0x03ff;
000066 0E03           00506         MOVLW   0x03
000068 16??           00507         ANDWF   r0x01, F
                      00508 ;       .line   36; Bibliotecas/pwm.c   CCPR1L = val >> 2;
00006A 90D8           00509         BCF     STATUS, 0
00006C 30??           00510         RRCF    r0x01, W
Message[1301]: Using default destination of 0 (Access Bank).
00006E 6E??           00511         MOVWF   r0x03
000070 30??           00512         RRCF    r0x00, W
Message[1301]: Using default destination of 0 (Access Bank).
000072 6E??           00513         MOVWF   r0x02
000074 90D8           00514         BCF     STATUS, 0
000076 32??           00515         RRCF    r0x03, F
000078 32??           00516         RRCF    r0x02, F
00007A 50??           00517         MOVF    r0x02, W
Message[1301]: Using default destination of 0 (Access Bank).
00007C 6E??           00518         MOVWF   _CCPR1L
                      00519 ;       .line   38; Bibliotecas/pwm.c   CCP1CON |= (val & 0x0003) << 4;
00007E 0E03           00520         MOVLW   0x03
000080 16??           00521         ANDWF   r0x00, F
Message[1301]: Using default destination of 0 (Access Bank).
000082 6A??           00522         CLRF    r0x01
000084 38??           00523         SWAPF   r0x00, W
000086 0BF0           00524         ANDLW   0xf0
Message[1301]: Using default destination of 0 (Access Bank).
000088 6E??           00525         MOVWF   r0x01
00008A 50??           00526         MOVF    r0x01, W
00008C 12??           00527         IORWF   _CCP1CON, F
00008E CFE4 F000      00528         MOVFF   PREINC1, r0x03
000092 CFE4 F000      00529         MOVFF   PREINC1, r0x02
000096 CFE4 F000      00530         MOVFF   PREINC1, r0x01
00009A CFE4 F000      00531         MOVFF   PREINC1, r0x00
00009E CFE4 FFD9      00532         MOVFF   PREINC1, FSR2L
0000A2 0012           00533         RETURN  
gpasm-1.4.0 #1106 (Oct  6 2014) build/default   10-31-2016  20:30:01        PAGE 12


LOC    OBJECT CODE    LINE  SOURCE TEXT
  VALUE

                      00534 
                      00535 
                      00536 
                      00537 ; Statistics:
                      00538 ; code size:      504 (0x01f8) bytes ( 0.38%)
                      00539 ;                 252 (0x00fc) words
                      00540 ; udata size:       0 (0x0000) bytes ( 0.00%)
                      00541 ; access size:      4 (0x0004) bytes
                      00542 
                      00543 
                      00544         end
gpasm-1.4.0 #1106 (Oct  6 2014) build/default   10-31-2016  20:30:01        PAGE 13


SYMBOL TABLE
  LABEL                             VALUE

FSR0L                             00000FE9
FSR1L                             00000FE1
FSR2L                             00000FD9
PLUSW2                            00000FDB
POSTDEC1                          00000FE5
PREINC1                           00000FE4
PRODH                             00000FF4
PRODL                             00000FF3
STATUS                            00000FD8
_ADCON0                           00000000
_ADCON0bits                       00000000
_ADCON1                           00000000
_ADCON1bits                       00000000
_ADCON2                           00000000
_ADCON2bits                       00000000
_ADRES                            00000000
_ADRESH                           00000000
_ADRESL                           00000000
_BAUDCON                          00000000
_BAUDCONbits                      00000000
_BAUDCTL                          00000000
_BAUDCTLbits                      00000000
_BSR                              00000000
_CCP1AS                           00000000
_CCP1ASbits                       00000000
_CCP1CON                          00000000
_CCP1CONbits                      00000000
_CCP1DEL                          00000000
_CCP1DELbits                      00000000
_CCP2CON                          00000000
_CCP2CONbits                      00000000
_CCPR1                            00000000
_CCPR1H                           00000000
_CCPR1L                           00000000
_CCPR2                            00000000
_CCPR2H                           00000000
_CCPR2L                           00000000
_CMCON                            00000000
_CMCONbits                        00000000
_CVRCON                           00000000
_CVRCONbits                       00000000
_DDRA                             00000000
_DDRAbits                         00000000
_DDRB                             00000000
_DDRBbits                         00000000
_DDRC                             00000000
_DDRCbits                         00000000
_DDRD                             00000000
_DDRDbits                         00000000
_DDRE                             00000000
_DDREbits                         00000000
_ECCP1AS                          00000000
_ECCP1ASbits                      00000000
gpasm-1.4.0 #1106 (Oct  6 2014) build/default   10-31-2016  20:30:01        PAGE 14


SYMBOL TABLE
  LABEL                             VALUE 

_ECCP1CON                         00000000
_ECCP1CONbits                     00000000
_ECCP1DEL                         00000000
_ECCP1DELbits                     00000000
_EEADR                            00000000
_EECON1                           00000000
_EECON1bits                       00000000
_EECON2                           00000000
_EEDATA                           00000000
_FSR0H                            00000000
_FSR0L                            00000000
_FSR1H                            00000000
_FSR1L                            00000000
_FSR2H                            00000000
_FSR2L                            00000000
_HLVDCON                          00000000
_HLVDCONbits                      00000000
_INDF0                            00000000
_INDF1                            00000000
_INDF2                            00000000
_INTCON                           00000000
_INTCON2                          00000000
_INTCON2bits                      00000000
_INTCON3                          00000000
_INTCON3bits                      00000000
_INTCONbits                       00000000
_IPR1                             00000000
_IPR1bits                         00000000
_IPR2                             00000000
_IPR2bits                         00000000
_InicializaPWM                    00000000
_LATA                             00000000
_LATAbits                         00000000
_LATB                             00000000
_LATBbits                         00000000
_LATC                             00000000
_LATCbits                         00000000
_LATD                             00000000
_LATDbits                         00000000
_LATE                             00000000
_LATEbits                         00000000
_LVDCON                           00000000
_LVDCONbits                       00000000
_OSCCON                           00000000
_OSCCONbits                       00000000
_OSCTUNE                          00000000
_OSCTUNEbits                      00000000
_PC                               00000000
_PCL                              00000000
_PCLATH                           00000000
_PCLATU                           00000000
_PIE1                             00000000
_PIE1bits                         00000000
gpasm-1.4.0 #1106 (Oct  6 2014) build/default   10-31-2016  20:30:01        PAGE 15


SYMBOL TABLE
  LABEL                             VALUE 

_PIE2                             00000000
_PIE2bits                         00000000
_PIR1                             00000000
_PIR1bits                         00000000
_PIR2                             00000000
_PIR2bits                         00000000
_PLUSW0                           00000000
_PLUSW1                           00000000
_PLUSW2                           00000000
_PORTA                            00000000
_PORTAbits                        00000000
_PORTB                            00000000
_PORTBbits                        00000000
_PORTC                            00000000
_PORTCbits                        00000000
_PORTD                            00000000
_PORTDbits                        00000000
_PORTE                            00000000
_PORTEbits                        00000000
_POSTDEC0                         00000000
_POSTDEC1                         00000000
_POSTDEC2                         00000000
_POSTINC0                         00000000
_POSTINC1                         00000000
_POSTINC2                         00000000
_PR2                              00000000
_PREINC0                          00000000
_PREINC1                          00000000
_PREINC2                          00000000
_PROD                             00000000
_PRODH                            00000000
_PRODL                            00000000
_RCON                             00000000
_RCONbits                         00000000
_RCREG                            00000000
_RCSTA                            00000000
_RCSTAbits                        00000000
_SPBRG                            00000000
_SPBRGH                           00000000
_SPPCFG                           00000000
_SPPCFGbits                       00000000
_SPPCON                           00000000
_SPPCONbits                       00000000
_SPPDATA                          00000000
_SPPEPS                           00000000
_SPPEPSbits                       00000000
_SSPADD                           00000000
_SSPBUF                           00000000
_SSPCON1                          00000000
_SSPCON1bits                      00000000
_SSPCON2                          00000000
_SSPCON2bits                      00000000
_SSPSTAT                          00000000
gpasm-1.4.0 #1106 (Oct  6 2014) build/default   10-31-2016  20:30:01        PAGE 16


SYMBOL TABLE
  LABEL                             VALUE 

_SSPSTATbits                      00000000
_STATUS                           00000000
_STATUSbits                       00000000
_STKPTR                           00000000
_STKPTRbits                       00000000
_SetaFreqPWM                      00000000
_SetaPWM1                         00000000
_SetaPWM2                         00000000
_T0CON                            00000000
_T0CONbits                        00000000
_T1CON                            00000000
_T1CONbits                        00000000
_T2CON                            00000000
_T2CONbits                        00000000
_T3CON                            00000000
_T3CONbits                        00000000
_TABLAT                           00000000
_TBLPTR                           00000000
_TBLPTRH                          00000000
_TBLPTRL                          00000000
_TBLPTRU                          00000000
_TMR0                             00000000
_TMR0H                            00000000
_TMR0L                            00000000
_TMR1                             00000000
_TMR1H                            00000000
_TMR1L                            00000000
_TMR2                             00000000
_TMR3                             00000000
_TMR3H                            00000000
_TMR3L                            00000000
_TOS                              00000000
_TOSH                             00000000
_TOSL                             00000000
_TOSU                             00000000
_TRISA                            00000000
_TRISAbits                        00000000
_TRISB                            00000000
_TRISBbits                        00000000
_TRISC                            00000000
_TRISCbits                        00000000
_TRISD                            00000000
_TRISDbits                        00000000
_TRISE                            00000000
_TRISEbits                        00000000
_TXREG                            00000000
_TXSTA                            00000000
_TXSTAbits                        00000000
_UADDR                            00000000
_UADDRbits                        00000000
_UCFG                             00000000
_UCFGbits                         00000000
_UCON                             00000000
gpasm-1.4.0 #1106 (Oct  6 2014) build/default   10-31-2016  20:30:01        PAGE 17


SYMBOL TABLE
  LABEL                             VALUE 

_UCONbits                         00000000
_UEIE                             00000000
_UEIEbits                         00000000
_UEIR                             00000000
_UEIRbits                         00000000
_UEP0                             00000000
_UEP0bits                         00000000
_UEP1                             00000000
_UEP10                            00000000
_UEP10bits                        00000000
_UEP11                            00000000
_UEP11bits                        00000000
_UEP12                            00000000
_UEP12bits                        00000000
_UEP13                            00000000
_UEP13bits                        00000000
_UEP14                            00000000
_UEP14bits                        00000000
_UEP15                            00000000
_UEP15bits                        00000000
_UEP1bits                         00000000
_UEP2                             00000000
_UEP2bits                         00000000
_UEP3                             00000000
_UEP3bits                         00000000
_UEP4                             00000000
_UEP4bits                         00000000
_UEP5                             00000000
_UEP5bits                         00000000
_UEP6                             00000000
_UEP6bits                         00000000
_UEP7                             00000000
_UEP7bits                         00000000
_UEP8                             00000000
_UEP8bits                         00000000
_UEP9                             00000000
_UEP9bits                         00000000
_UFRM                             00000000
_UFRMH                            00000000
_UFRMHbits                        00000000
_UFRML                            00000000
_UFRMLbits                        00000000
_UIE                              00000000
_UIEbits                          00000000
_UIR                              00000000
_UIRbits                          00000000
_USTAT                            00000000
_USTATbits                        00000000
_WDTCON                           00000000
_WDTCONbits                       00000000
_WREG                             00000000
__18F4550                         00000001
__ACC_RAM_LOW_END                 0000005F
gpasm-1.4.0 #1106 (Oct  6 2014) build/default   10-31-2016  20:30:01        PAGE 18


SYMBOL TABLE
  LABEL                             VALUE 

__CODE_END                        00007FFF
__CODE_START                      00000000
__EEPROM_END                      00F000FF
__EEPROM_START                    00F00000
__VECTOR_INT_HIGH                 00000008
__VECTOR_INT_LOW                  00000018
__VECTOR_RESET                    00000000
__divslong                        00000000
__divuint                         00000000
__mulint                          00000000
r0x00                             00000000
r0x01                             00000001
r0x02                             00000002
r0x03                             00000003

Errors   :     0
Warnings :     0 reported,     0 suppressed
Messages :    50 reported,     0 suppressed

